Archive member included because of file (symbol)

../BitCloud_ZIGBIT_1_7_0/BitCloud/Components/../lib\libBc_All_ZigBit_Atmega1281_Rf230_8Mhz_Gcc.a(apsControlManager.o)
                              ./objs/messages.o (APS_RegisterEndpointReq)
../BitCloud_ZIGBIT_1_7_0/BitCloud/Components/../lib\libBc_All_ZigBit_Atmega1281_Rf230_8Mhz_Gcc.a(apsDataManager.o)
                              ../BitCloud_ZIGBIT_1_7_0/BitCloud/Components/../lib\libBc_All_ZigBit_Atmega1281_Rf230_8Mhz_Gcc.a(apsControlManager.o) (APS_CalculateTimes)
../BitCloud_ZIGBIT_1_7_0/BitCloud/Components/../lib\libBc_All_ZigBit_Atmega1281_Rf230_8Mhz_Gcc.a(apsGroupManager.o)
                              ../BitCloud_ZIGBIT_1_7_0/BitCloud/Components/../lib\libBc_All_ZigBit_Atmega1281_Rf230_8Mhz_Gcc.a(apsDataManager.o) (APS_FindGroup)
../BitCloud_ZIGBIT_1_7_0/BitCloud/Components/../lib\libBc_All_ZigBit_Atmega1281_Rf230_8Mhz_Gcc.a(apsStateMachine.o)
                              ../BitCloud_ZIGBIT_1_7_0/BitCloud/Components/../lib\libBc_All_ZigBit_Atmega1281_Rf230_8Mhz_Gcc.a(apsControlManager.o) (apsSetState)
../BitCloud_ZIGBIT_1_7_0/BitCloud/Components/../lib\libBc_All_ZigBit_Atmega1281_Rf230_8Mhz_Gcc.a(apsTaskManager.o)
                              ../BitCloud_ZIGBIT_1_7_0/BitCloud/Components/../lib\libBc_All_ZigBit_Atmega1281_Rf230_8Mhz_Gcc.a(apsControlManager.o) (apsPostTask)
../BitCloud_ZIGBIT_1_7_0/BitCloud/Components/../lib\libBc_All_ZigBit_Atmega1281_Rf230_8Mhz_Gcc.a(apsTimer.o)
                              ../BitCloud_ZIGBIT_1_7_0/BitCloud/Components/../lib\libBc_All_ZigBit_Atmega1281_Rf230_8Mhz_Gcc.a(apsDataManager.o) (apsStopAppTimer)
../BitCloud_ZIGBIT_1_7_0/BitCloud/Components/../lib\libBc_All_ZigBit_Atmega1281_Rf230_8Mhz_Gcc.a(main.o)
                              c:/winavr-20090313/bin/../lib/gcc/avr/4.3.2/../../../../avr/lib/avr51/crtm1281.o (main)
../BitCloud_ZIGBIT_1_7_0/BitCloud/Components/../lib\libBc_All_ZigBit_Atmega1281_Rf230_8Mhz_Gcc.a(nwkAddress.o)
                              ../BitCloud_ZIGBIT_1_7_0/BitCloud/Components/../lib\libBc_All_ZigBit_Atmega1281_Rf230_8Mhz_Gcc.a(apsDataManager.o) (NWK_GetShortAddr)
../BitCloud_ZIGBIT_1_7_0/BitCloud/Components/../lib\libBc_All_ZigBit_Atmega1281_Rf230_8Mhz_Gcc.a(nwkAddressMap.o)
                              ../BitCloud_ZIGBIT_1_7_0/BitCloud/Components/../lib\libBc_All_ZigBit_Atmega1281_Rf230_8Mhz_Gcc.a(apsDataManager.o) (NWK_GetExtByShortAddress)
../BitCloud_ZIGBIT_1_7_0/BitCloud/Components/../lib\libBc_All_ZigBit_Atmega1281_Rf230_8Mhz_Gcc.a(nwkDataReq.o)
                              ../BitCloud_ZIGBIT_1_7_0/BitCloud/Components/../lib\libBc_All_ZigBit_Atmega1281_Rf230_8Mhz_Gcc.a(apsDataManager.o) (NWK_DataReq)
../BitCloud_ZIGBIT_1_7_0/BitCloud/Components/../lib\libBc_All_ZigBit_Atmega1281_Rf230_8Mhz_Gcc.a(nwkFrame.o)
                              ../BitCloud_ZIGBIT_1_7_0/BitCloud/Components/../lib\libBc_All_ZigBit_Atmega1281_Rf230_8Mhz_Gcc.a(nwkDataReq.o) (nwkPrepareCommonFrame)
../BitCloud_ZIGBIT_1_7_0/BitCloud/Components/../lib\libBc_All_ZigBit_Atmega1281_Rf230_8Mhz_Gcc.a(nwkMem.o)
                              ../BitCloud_ZIGBIT_1_7_0/BitCloud/Components/../lib\libBc_All_ZigBit_Atmega1281_Rf230_8Mhz_Gcc.a(nwkAddress.o) (nwkMem)
../BitCloud_ZIGBIT_1_7_0/BitCloud/Components/../lib\libBc_All_ZigBit_Atmega1281_Rf230_8Mhz_Gcc.a(nwkNeighborTable.o)
                              ../BitCloud_ZIGBIT_1_7_0/BitCloud/Components/../lib\libBc_All_ZigBit_Atmega1281_Rf230_8Mhz_Gcc.a(apsDataManager.o) (NWK_FindNeighborByShortAddr)
../BitCloud_ZIGBIT_1_7_0/BitCloud/Components/../lib\libBc_All_ZigBit_Atmega1281_Rf230_8Mhz_Gcc.a(nwkReset.o)
                              ../BitCloud_ZIGBIT_1_7_0/BitCloud/Components/../lib\libBc_All_ZigBit_Atmega1281_Rf230_8Mhz_Gcc.a(apsControlManager.o) (NWK_Init)
../BitCloud_ZIGBIT_1_7_0/BitCloud/Components/../lib\libBc_All_ZigBit_Atmega1281_Rf230_8Mhz_Gcc.a(nwkRouteDiscovery.o)
                              ../BitCloud_ZIGBIT_1_7_0/BitCloud/Components/../lib\libBc_All_ZigBit_Atmega1281_Rf230_8Mhz_Gcc.a(nwkReset.o) (nwkResetRouteDiscovery)
../BitCloud_ZIGBIT_1_7_0/BitCloud/Components/../lib\libBc_All_ZigBit_Atmega1281_Rf230_8Mhz_Gcc.a(nwkRouteReply.o)
                              ../BitCloud_ZIGBIT_1_7_0/BitCloud/Components/../lib\libBc_All_ZigBit_Atmega1281_Rf230_8Mhz_Gcc.a(nwkRouteDiscovery.o) (cmdRouteReplyPrepareMacReq)
../BitCloud_ZIGBIT_1_7_0/BitCloud/Components/../lib\libBc_All_ZigBit_Atmega1281_Rf230_8Mhz_Gcc.a(nwkRouteRequest.o)
                              ../BitCloud_ZIGBIT_1_7_0/BitCloud/Components/../lib\libBc_All_ZigBit_Atmega1281_Rf230_8Mhz_Gcc.a(nwkRouteDiscovery.o) (cmdRouteReqPrepareMacReq)
../BitCloud_ZIGBIT_1_7_0/BitCloud/Components/../lib\libBc_All_ZigBit_Atmega1281_Rf230_8Mhz_Gcc.a(nwkRouteTable.o)
                              ../BitCloud_ZIGBIT_1_7_0/BitCloud/Components/../lib\libBc_All_ZigBit_Atmega1281_Rf230_8Mhz_Gcc.a(nwkRouteDiscovery.o) (nwkRouteRequestId)
../BitCloud_ZIGBIT_1_7_0/BitCloud/Components/../lib\libBc_All_ZigBit_Atmega1281_Rf230_8Mhz_Gcc.a(nwkStartRouter.o)
                              ../BitCloud_ZIGBIT_1_7_0/BitCloud/Components/../lib\libBc_All_ZigBit_Atmega1281_Rf230_8Mhz_Gcc.a(nwkReset.o) (nwkResetStartRouter)
../BitCloud_ZIGBIT_1_7_0/BitCloud/Components/../lib\libBc_All_ZigBit_Atmega1281_Rf230_8Mhz_Gcc.a(nwkStatusInd.o)
                              ../BitCloud_ZIGBIT_1_7_0/BitCloud/Components/../lib\libBc_All_ZigBit_Atmega1281_Rf230_8Mhz_Gcc.a(nwkReset.o) (nwkResetStatusReceiver)
../BitCloud_ZIGBIT_1_7_0/BitCloud/Components/../lib\libBc_All_ZigBit_Atmega1281_Rf230_8Mhz_Gcc.a(nwkStatusReq.o)
                              ../BitCloud_ZIGBIT_1_7_0/BitCloud/Components/../lib\libBc_All_ZigBit_Atmega1281_Rf230_8Mhz_Gcc.a(nwkReset.o) (nwkResetStatusSender)
../BitCloud_ZIGBIT_1_7_0/BitCloud/Components/../lib\libBc_All_ZigBit_Atmega1281_Rf230_8Mhz_Gcc.a(nwkSync.o)
                              ../BitCloud_ZIGBIT_1_7_0/BitCloud/Components/../lib\libBc_All_ZigBit_Atmega1281_Rf230_8Mhz_Gcc.a(nwkReset.o) (nwkResetSync)
../BitCloud_ZIGBIT_1_7_0/BitCloud/Components/../lib\libBc_All_ZigBit_Atmega1281_Rf230_8Mhz_Gcc.a(nwkTaskManager.o)
                              ../BitCloud_ZIGBIT_1_7_0/BitCloud/Components/../lib\libBc_All_ZigBit_Atmega1281_Rf230_8Mhz_Gcc.a(nwkDataReq.o) (nwkPostTask)
../BitCloud_ZIGBIT_1_7_0/BitCloud/Components/../lib\libBc_All_ZigBit_Atmega1281_Rf230_8Mhz_Gcc.a(nwkTx.o)
                              ../BitCloud_ZIGBIT_1_7_0/BitCloud/Components/../lib\libBc_All_ZigBit_Atmega1281_Rf230_8Mhz_Gcc.a(nwkTaskManager.o) (nwkDataReqTaskHandler)
../BitCloud_ZIGBIT_1_7_0/BitCloud/Components/../lib\libBc_All_ZigBit_Atmega1281_Rf230_8Mhz_Gcc.a(phyInit.o)
                              ../BitCloud_ZIGBIT_1_7_0/BitCloud/Components/../lib\libBc_All_ZigBit_Atmega1281_Rf230_8Mhz_Gcc.a(main.o) (RF_Init)
../BitCloud_ZIGBIT_1_7_0/BitCloud/Components/../lib\libBc_All_ZigBit_Atmega1281_Rf230_8Mhz_Gcc.a(phyRfSpiProto.o)
                              ../BitCloud_ZIGBIT_1_7_0/BitCloud/Components/../lib\libBc_All_ZigBit_Atmega1281_Rf230_8Mhz_Gcc.a(phyInit.o) (phyReadRegister)
../BitCloud_ZIGBIT_1_7_0/BitCloud/Components/../lib\libBc_All_ZigBit_Atmega1281_Rf230_8Mhz_Gcc.a(queue.o)
                              ../BitCloud_ZIGBIT_1_7_0/BitCloud/Components/../lib\libBc_All_ZigBit_Atmega1281_Rf230_8Mhz_Gcc.a(apsControlManager.o) (resetQueue)
../BitCloud_ZIGBIT_1_7_0/BitCloud/Components/../lib\libBc_All_ZigBit_Atmega1281_Rf230_8Mhz_Gcc.a(taskManager.o)
                              ../BitCloud_ZIGBIT_1_7_0/BitCloud/Components/../lib\libBc_All_ZigBit_Atmega1281_Rf230_8Mhz_Gcc.a(main.o) (SYS_RunTask)
../BitCloud_ZIGBIT_1_7_0/BitCloud/Components/../lib\libBc_All_ZigBit_Atmega1281_Rf230_8Mhz_Gcc.a(zdoNwkManager.o)
                              ../BitCloud_ZIGBIT_1_7_0/BitCloud/Components/../lib\libBc_All_ZigBit_Atmega1281_Rf230_8Mhz_Gcc.a(nwkAddress.o) (NWK_NwkStatusInd)
../BitCloud_ZIGBIT_1_7_0/BitCloud/Components/../lib\libBc_All_ZigBit_Atmega1281_Rf230_8Mhz_Gcc.a(zdoStateMachines.o)
                              ../BitCloud_ZIGBIT_1_7_0/BitCloud/Components/../lib\libBc_All_ZigBit_Atmega1281_Rf230_8Mhz_Gcc.a(zdoNwkManager.o) (ZDO_GetNwkStatus)
../BitCloud_ZIGBIT_1_7_0/BitCloud/Components/../lib\libBc_All_ZigBit_Atmega1281_Rf230_8Mhz_Gcc.a(zdoTaskManager.o)
                              ../BitCloud_ZIGBIT_1_7_0/BitCloud/Components/../lib\libBc_All_ZigBit_Atmega1281_Rf230_8Mhz_Gcc.a(zdoStateMachines.o) (zdoPostTask)
../BitCloud_ZIGBIT_1_7_0/BitCloud/Components/../lib\libBc_All_ZigBit_Atmega1281_Rf230_8Mhz_Gcc.a(zdoZdpFrameProcessor.o)
                              ../BitCloud_ZIGBIT_1_7_0/BitCloud/Components/../lib\libBc_All_ZigBit_Atmega1281_Rf230_8Mhz_Gcc.a(apsDataManager.o) (APS_ZdoDataInd)
../BitCloud_ZIGBIT_1_7_0/BitCloud/Components/../lib\libBc_All_ZigBit_Atmega1281_Rf230_8Mhz_Gcc.a(zdoZdpManager.o)
                              ../BitCloud_ZIGBIT_1_7_0/BitCloud/Components/../lib\libBc_All_ZigBit_Atmega1281_Rf230_8Mhz_Gcc.a(zdoTaskManager.o) (zdoZdpManagerHandler)
../BitCloud_ZIGBIT_1_7_0/BitCloud/Components/../lib\libBc_All_ZigBit_Atmega1281_Rf230_8Mhz_Gcc.a(zib.o)
                              ../BitCloud_ZIGBIT_1_7_0/BitCloud/Components/../lib\libBc_All_ZigBit_Atmega1281_Rf230_8Mhz_Gcc.a(zdoStateMachines.o) (zdoInitZIB)
../BitCloud_ZIGBIT_1_7_0/BitCloud/Components/../lib\libBc_All_ZigBit_Atmega1281_Rf230_8Mhz_Gcc.a(apsAibManager.o)
                              ../BitCloud_ZIGBIT_1_7_0/BitCloud/Components/../lib\libBc_All_ZigBit_Atmega1281_Rf230_8Mhz_Gcc.a(apsTaskManager.o) (apsAIBManagerProcess)
../BitCloud_ZIGBIT_1_7_0/BitCloud/Components/../lib\libBc_All_ZigBit_Atmega1281_Rf230_8Mhz_Gcc.a(apsBindManager.o)
                              ../BitCloud_ZIGBIT_1_7_0/BitCloud/Components/../lib\libBc_All_ZigBit_Atmega1281_Rf230_8Mhz_Gcc.a(apsDataManager.o) (apsFindBindSrcEntry)
../BitCloud_ZIGBIT_1_7_0/BitCloud/Components/../lib\libBc_All_ZigBit_Atmega1281_Rf230_8Mhz_Gcc.a(machwdManager.o)
                              ../BitCloud_ZIGBIT_1_7_0/BitCloud/Components/../lib\libBc_All_ZigBit_Atmega1281_Rf230_8Mhz_Gcc.a(taskManager.o) (MAC_PHY_HWD_TaskHandler)
../BitCloud_ZIGBIT_1_7_0/BitCloud/Components/../lib\libBc_All_ZigBit_Atmega1281_Rf230_8Mhz_Gcc.a(machwdResetHandler.o)
                              ../BitCloud_ZIGBIT_1_7_0/BitCloud/Components/../lib\libBc_All_ZigBit_Atmega1281_Rf230_8Mhz_Gcc.a(machwdManager.o) (machwdReset)
../BitCloud_ZIGBIT_1_7_0/BitCloud/Components/../lib\libBc_All_ZigBit_Atmega1281_Rf230_8Mhz_Gcc.a(machwdRndHandler.o)
                              ../BitCloud_ZIGBIT_1_7_0/BitCloud/Components/../lib\libBc_All_ZigBit_Atmega1281_Rf230_8Mhz_Gcc.a(machwdManager.o) (machwdRndReqHandler)
../BitCloud_ZIGBIT_1_7_0/BitCloud/Components/../lib\libBc_All_ZigBit_Atmega1281_Rf230_8Mhz_Gcc.a(machwdRxBuffer.o)
                              ../BitCloud_ZIGBIT_1_7_0/BitCloud/Components/../lib\libBc_All_ZigBit_Atmega1281_Rf230_8Mhz_Gcc.a(machwdResetHandler.o) (machwdResetRxBuffer)
../BitCloud_ZIGBIT_1_7_0/BitCloud/Components/../lib\libBc_All_ZigBit_Atmega1281_Rf230_8Mhz_Gcc.a(machwdRxFrameHandler.o)
                              ../BitCloud_ZIGBIT_1_7_0/BitCloud/Components/../lib\libBc_All_ZigBit_Atmega1281_Rf230_8Mhz_Gcc.a(machwdManager.o) (machwdRxFrameIndTaskHandler)
../BitCloud_ZIGBIT_1_7_0/BitCloud/Components/../lib\libBc_All_ZigBit_Atmega1281_Rf230_8Mhz_Gcc.a(machwdSetHandler.o)
                              ../BitCloud_ZIGBIT_1_7_0/BitCloud/Components/../lib\libBc_All_ZigBit_Atmega1281_Rf230_8Mhz_Gcc.a(machwdResetHandler.o) (machwdResetSetHandler)
../BitCloud_ZIGBIT_1_7_0/BitCloud/Components/../lib\libBc_All_ZigBit_Atmega1281_Rf230_8Mhz_Gcc.a(machwdTrxCtrl.o)
                              ../BitCloud_ZIGBIT_1_7_0/BitCloud/Components/../lib\libBc_All_ZigBit_Atmega1281_Rf230_8Mhz_Gcc.a(machwdSetHandler.o) (machwdConvertTrxStateToTrxCmd)
../BitCloud_ZIGBIT_1_7_0/BitCloud/Components/../lib\libBc_All_ZigBit_Atmega1281_Rf230_8Mhz_Gcc.a(machwdTrxHandler.o)
                              ../BitCloud_ZIGBIT_1_7_0/BitCloud/Components/../lib\libBc_All_ZigBit_Atmega1281_Rf230_8Mhz_Gcc.a(machwdResetHandler.o) (machwdResetTrxHandler)
../BitCloud_ZIGBIT_1_7_0/BitCloud/Components/../lib\libBc_All_ZigBit_Atmega1281_Rf230_8Mhz_Gcc.a(machwdTxFrameHandler.o)
                              ../BitCloud_ZIGBIT_1_7_0/BitCloud/Components/../lib\libBc_All_ZigBit_Atmega1281_Rf230_8Mhz_Gcc.a(machwdResetHandler.o) (machwdResetTxFrameHandler)
../BitCloud_ZIGBIT_1_7_0/BitCloud/Components/../lib\libBc_All_ZigBit_Atmega1281_Rf230_8Mhz_Gcc.a(machwiManager.o)
                              ../BitCloud_ZIGBIT_1_7_0/BitCloud/Components/../lib\libBc_All_ZigBit_Atmega1281_Rf230_8Mhz_Gcc.a(nwkTx.o) (MAC_DataReq)
../BitCloud_ZIGBIT_1_7_0/BitCloud/Components/../lib\libBc_All_ZigBit_Atmega1281_Rf230_8Mhz_Gcc.a(machwiOrphanHandler.o)
                              ../BitCloud_ZIGBIT_1_7_0/BitCloud/Components/../lib\libBc_All_ZigBit_Atmega1281_Rf230_8Mhz_Gcc.a(machwiManager.o) (machwiOrphanRespHandler)
../BitCloud_ZIGBIT_1_7_0/BitCloud/Components/../lib\libBc_All_ZigBit_Atmega1281_Rf230_8Mhz_Gcc.a(machwiPanServer.o)
                              ../BitCloud_ZIGBIT_1_7_0/BitCloud/Components/../lib\libBc_All_ZigBit_Atmega1281_Rf230_8Mhz_Gcc.a(machwdRxFrameHandler.o) (MACHWD_DataInd)
../BitCloud_ZIGBIT_1_7_0/BitCloud/Components/../lib\libBc_All_ZigBit_Atmega1281_Rf230_8Mhz_Gcc.a(machwiPollHandler.o)
                              ../BitCloud_ZIGBIT_1_7_0/BitCloud/Components/../lib\libBc_All_ZigBit_Atmega1281_Rf230_8Mhz_Gcc.a(machwiManager.o) (machwiPollReqHandler)
../BitCloud_ZIGBIT_1_7_0/BitCloud/Components/../lib\libBc_All_ZigBit_Atmega1281_Rf230_8Mhz_Gcc.a(machwiPurgeHandler.o)
                              ../BitCloud_ZIGBIT_1_7_0/BitCloud/Components/../lib\libBc_All_ZigBit_Atmega1281_Rf230_8Mhz_Gcc.a(machwiManager.o) (machwiPurgeReqHandler)
../BitCloud_ZIGBIT_1_7_0/BitCloud/Components/../lib\libBc_All_ZigBit_Atmega1281_Rf230_8Mhz_Gcc.a(machwiResetHandler.o)
                              ../BitCloud_ZIGBIT_1_7_0/BitCloud/Components/../lib\libBc_All_ZigBit_Atmega1281_Rf230_8Mhz_Gcc.a(machwiManager.o) (machwiResetReqHandler)
../BitCloud_ZIGBIT_1_7_0/BitCloud/Components/../lib\libBc_All_ZigBit_Atmega1281_Rf230_8Mhz_Gcc.a(machwiRxEnableHandler.o)
                              ../BitCloud_ZIGBIT_1_7_0/BitCloud/Components/../lib\libBc_All_ZigBit_Atmega1281_Rf230_8Mhz_Gcc.a(machwiManager.o) (machwiRxEnableReqHandler)
../BitCloud_ZIGBIT_1_7_0/BitCloud/Components/../lib\libBc_All_ZigBit_Atmega1281_Rf230_8Mhz_Gcc.a(machwiScanHandler.o)
                              ../BitCloud_ZIGBIT_1_7_0/BitCloud/Components/../lib\libBc_All_ZigBit_Atmega1281_Rf230_8Mhz_Gcc.a(machwiResetHandler.o) (machwiResetScanHandler)
../BitCloud_ZIGBIT_1_7_0/BitCloud/Components/../lib\libBc_All_ZigBit_Atmega1281_Rf230_8Mhz_Gcc.a(machwiSetGetHandler.o)
                              ../BitCloud_ZIGBIT_1_7_0/BitCloud/Components/../lib\libBc_All_ZigBit_Atmega1281_Rf230_8Mhz_Gcc.a(machwiManager.o) (machwiSetReqHandler)
../BitCloud_ZIGBIT_1_7_0/BitCloud/Components/../lib\libBc_All_ZigBit_Atmega1281_Rf230_8Mhz_Gcc.a(machwiStartHandler.o)
                              ../BitCloud_ZIGBIT_1_7_0/BitCloud/Components/../lib\libBc_All_ZigBit_Atmega1281_Rf230_8Mhz_Gcc.a(machwiResetHandler.o) (machwiResetStartHandler)
../BitCloud_ZIGBIT_1_7_0/BitCloud/Components/../lib\libBc_All_ZigBit_Atmega1281_Rf230_8Mhz_Gcc.a(machwiSwitchRxCtrl.o)
                              ../BitCloud_ZIGBIT_1_7_0/BitCloud/Components/../lib\libBc_All_ZigBit_Atmega1281_Rf230_8Mhz_Gcc.a(machwiPollHandler.o) (machwiSwitchRxAccordToRxOnWhenIdle)
../BitCloud_ZIGBIT_1_7_0/BitCloud/Components/../lib\libBc_All_ZigBit_Atmega1281_Rf230_8Mhz_Gcc.a(machwiTransactionHandler.o)
                              ../BitCloud_ZIGBIT_1_7_0/BitCloud/Components/../lib\libBc_All_ZigBit_Atmega1281_Rf230_8Mhz_Gcc.a(machwiResetHandler.o) (machwiResetTransactionHandler)
../BitCloud_ZIGBIT_1_7_0/BitCloud/Components/../lib\libBc_All_ZigBit_Atmega1281_Rf230_8Mhz_Gcc.a(machwiTransactionQueue.o)
                              ../BitCloud_ZIGBIT_1_7_0/BitCloud/Components/../lib\libBc_All_ZigBit_Atmega1281_Rf230_8Mhz_Gcc.a(machwiResetHandler.o) (machwiResetTransactionQueue)
../BitCloud_ZIGBIT_1_7_0/BitCloud/Components/../lib\libBc_All_ZigBit_Atmega1281_Rf230_8Mhz_Gcc.a(nwkAddrConflict.o)
                              ../BitCloud_ZIGBIT_1_7_0/BitCloud/Components/../lib\libBc_All_ZigBit_Atmega1281_Rf230_8Mhz_Gcc.a(nwkReset.o) (nwkResetAddrConflict)
../BitCloud_ZIGBIT_1_7_0/BitCloud/Components/../lib\libBc_All_ZigBit_Atmega1281_Rf230_8Mhz_Gcc.a(nwkAge.o)
                              ../BitCloud_ZIGBIT_1_7_0/BitCloud/Components/../lib\libBc_All_ZigBit_Atmega1281_Rf230_8Mhz_Gcc.a(nwkRouteTable.o) (nwkInitAge)
../BitCloud_ZIGBIT_1_7_0/BitCloud/Components/../lib\libBc_All_ZigBit_Atmega1281_Rf230_8Mhz_Gcc.a(nwkBTT.o)
                              ../BitCloud_ZIGBIT_1_7_0/BitCloud/Components/../lib\libBc_All_ZigBit_Atmega1281_Rf230_8Mhz_Gcc.a(nwkAge.o) (nwkUpdateAgeBTT)
../BitCloud_ZIGBIT_1_7_0/BitCloud/Components/../lib\libBc_All_ZigBit_Atmega1281_Rf230_8Mhz_Gcc.a(nwkCommands.o)
                              ../BitCloud_ZIGBIT_1_7_0/BitCloud/Components/../lib\libBc_All_ZigBit_Atmega1281_Rf230_8Mhz_Gcc.a(nwkReset.o) (nwkResetCommands)
../BitCloud_ZIGBIT_1_7_0/BitCloud/Components/../lib\libBc_All_ZigBit_Atmega1281_Rf230_8Mhz_Gcc.a(nwkDiscovery.o)
                              ../BitCloud_ZIGBIT_1_7_0/BitCloud/Components/../lib\libBc_All_ZigBit_Atmega1281_Rf230_8Mhz_Gcc.a(machwiManager.o) (MAC_BeaconNotifyInd)
../BitCloud_ZIGBIT_1_7_0/BitCloud/Components/../lib\libBc_All_ZigBit_Atmega1281_Rf230_8Mhz_Gcc.a(nwkEDScan.o)
                              ../BitCloud_ZIGBIT_1_7_0/BitCloud/Components/../lib\libBc_All_ZigBit_Atmega1281_Rf230_8Mhz_Gcc.a(nwkReset.o) (nwkResetEDScan)
../BitCloud_ZIGBIT_1_7_0/BitCloud/Components/../lib\libBc_All_ZigBit_Atmega1281_Rf230_8Mhz_Gcc.a(nwkFormation.o)
                              ../BitCloud_ZIGBIT_1_7_0/BitCloud/Components/../lib\libBc_All_ZigBit_Atmega1281_Rf230_8Mhz_Gcc.a(nwkReset.o) (nwkResetFormation)
../BitCloud_ZIGBIT_1_7_0/BitCloud/Components/../lib\libBc_All_ZigBit_Atmega1281_Rf230_8Mhz_Gcc.a(nwkIB.o)
                              ../BitCloud_ZIGBIT_1_7_0/BitCloud/Components/../lib\libBc_All_ZigBit_Atmega1281_Rf230_8Mhz_Gcc.a(zdoStateMachines.o) (NWK_GetParentShortAddr)
../BitCloud_ZIGBIT_1_7_0/BitCloud/Components/../lib\libBc_All_ZigBit_Atmega1281_Rf230_8Mhz_Gcc.a(nwkJoinInd.o)
                              ../BitCloud_ZIGBIT_1_7_0/BitCloud/Components/../lib\libBc_All_ZigBit_Atmega1281_Rf230_8Mhz_Gcc.a(machwiManager.o) (MAC_OrphanInd)
../BitCloud_ZIGBIT_1_7_0/BitCloud/Components/../lib\libBc_All_ZigBit_Atmega1281_Rf230_8Mhz_Gcc.a(nwkJoinReq.o)
                              ../BitCloud_ZIGBIT_1_7_0/BitCloud/Components/../lib\libBc_All_ZigBit_Atmega1281_Rf230_8Mhz_Gcc.a(nwkReset.o) (nwkResetJoinReq)
../BitCloud_ZIGBIT_1_7_0/BitCloud/Components/../lib\libBc_All_ZigBit_Atmega1281_Rf230_8Mhz_Gcc.a(nwkLeaveInd.o)
                              ../BitCloud_ZIGBIT_1_7_0/BitCloud/Components/../lib\libBc_All_ZigBit_Atmega1281_Rf230_8Mhz_Gcc.a(nwkReset.o) (nwkResetLeave)
../BitCloud_ZIGBIT_1_7_0/BitCloud/Components/../lib\libBc_All_ZigBit_Atmega1281_Rf230_8Mhz_Gcc.a(nwkLeaveReq.o)
                              ../BitCloud_ZIGBIT_1_7_0/BitCloud/Components/../lib\libBc_All_ZigBit_Atmega1281_Rf230_8Mhz_Gcc.a(nwkTaskManager.o) (nwkLeaveTaskHandler)
../BitCloud_ZIGBIT_1_7_0/BitCloud/Components/../lib\libBc_All_ZigBit_Atmega1281_Rf230_8Mhz_Gcc.a(nwkLinkStatus.o)
                              ../BitCloud_ZIGBIT_1_7_0/BitCloud/Components/../lib\libBc_All_ZigBit_Atmega1281_Rf230_8Mhz_Gcc.a(nwkCommands.o) (nwkLinkStatusInd)
../BitCloud_ZIGBIT_1_7_0/BitCloud/Components/../lib\libBc_All_ZigBit_Atmega1281_Rf230_8Mhz_Gcc.a(nwkPacket.o)
                              ../BitCloud_ZIGBIT_1_7_0/BitCloud/Components/../lib\libBc_All_ZigBit_Atmega1281_Rf230_8Mhz_Gcc.a(nwkCommands.o) (nwkAllocOutputPacket)
../BitCloud_ZIGBIT_1_7_0/BitCloud/Components/../lib\libBc_All_ZigBit_Atmega1281_Rf230_8Mhz_Gcc.a(nwkPermitJoining.o)
                              ../BitCloud_ZIGBIT_1_7_0/BitCloud/Components/../lib\libBc_All_ZigBit_Atmega1281_Rf230_8Mhz_Gcc.a(nwkReset.o) (nwkResetPermitJoining)
../BitCloud_ZIGBIT_1_7_0/BitCloud/Components/../lib\libBc_All_ZigBit_Atmega1281_Rf230_8Mhz_Gcc.a(nwkRouting.o)
                              ../BitCloud_ZIGBIT_1_7_0/BitCloud/Components/../lib\libBc_All_ZigBit_Atmega1281_Rf230_8Mhz_Gcc.a(nwkTx.o) (nwkGetNextHop)
../BitCloud_ZIGBIT_1_7_0/BitCloud/Components/../lib\libBc_All_ZigBit_Atmega1281_Rf230_8Mhz_Gcc.a(nwkRx.o)
                              ../BitCloud_ZIGBIT_1_7_0/BitCloud/Components/../lib\libBc_All_ZigBit_Atmega1281_Rf230_8Mhz_Gcc.a(machwiManager.o) (MAC_DataInd)
../BitCloud_ZIGBIT_1_7_0/BitCloud/Components/../lib\libBc_All_ZigBit_Atmega1281_Rf230_8Mhz_Gcc.a(nwkSyncLoss.o)
                              ../BitCloud_ZIGBIT_1_7_0/BitCloud/Components/../lib\libBc_All_ZigBit_Atmega1281_Rf230_8Mhz_Gcc.a(machwiManager.o) (MAC_SyncLossInd)
../BitCloud_ZIGBIT_1_7_0/BitCloud/Components/../lib\libBc_All_ZigBit_Atmega1281_Rf230_8Mhz_Gcc.a(phyReset.o)
                              ../BitCloud_ZIGBIT_1_7_0/BitCloud/Components/../lib\libBc_All_ZigBit_Atmega1281_Rf230_8Mhz_Gcc.a(machwdResetHandler.o) (PHY_Reset)
../BitCloud_ZIGBIT_1_7_0/BitCloud/Components/../lib\libBc_All_ZigBit_Atmega1281_Rf230_8Mhz_Gcc.a(phyRxFrame.o)
                              ../BitCloud_ZIGBIT_1_7_0/BitCloud/Components/../lib\libBc_All_ZigBit_Atmega1281_Rf230_8Mhz_Gcc.a(machwdRxFrameHandler.o) (PHY_DownloadFrame)
../BitCloud_ZIGBIT_1_7_0/BitCloud/Components/../lib\libBc_All_ZigBit_Atmega1281_Rf230_8Mhz_Gcc.a(phySet.o)
                              ../BitCloud_ZIGBIT_1_7_0/BitCloud/Components/../lib\libBc_All_ZigBit_Atmega1281_Rf230_8Mhz_Gcc.a(machwdResetHandler.o) (PHY_SetReq)
../BitCloud_ZIGBIT_1_7_0/BitCloud/Components/../lib\libBc_All_ZigBit_Atmega1281_Rf230_8Mhz_Gcc.a(phySetTrxState.o)
                              ../BitCloud_ZIGBIT_1_7_0/BitCloud/Components/../lib\libBc_All_ZigBit_Atmega1281_Rf230_8Mhz_Gcc.a(machwdTrxCtrl.o) (PHY_SetTrxStateReq)
../BitCloud_ZIGBIT_1_7_0/BitCloud/Components/../lib\libBc_All_ZigBit_Atmega1281_Rf230_8Mhz_Gcc.a(phyStateMachine.o)
                              ../BitCloud_ZIGBIT_1_7_0/BitCloud/Components/../lib\libBc_All_ZigBit_Atmega1281_Rf230_8Mhz_Gcc.a(phyReset.o) (__phyState)
../BitCloud_ZIGBIT_1_7_0/BitCloud/Components/../lib\libBc_All_ZigBit_Atmega1281_Rf230_8Mhz_Gcc.a(phyTxFrame.o)
                              ../BitCloud_ZIGBIT_1_7_0/BitCloud/Components/../lib\libBc_All_ZigBit_Atmega1281_Rf230_8Mhz_Gcc.a(machwdTxFrameHandler.o) (PHY_DataReq)
../BitCloud_ZIGBIT_1_7_0/BitCloud/Components/../lib\libBc_All_ZigBit_Atmega1281_Rf230_8Mhz_Gcc.a(zdoBindingManager.o)
                              ../BitCloud_ZIGBIT_1_7_0/BitCloud/Components/../lib\libBc_All_ZigBit_Atmega1281_Rf230_8Mhz_Gcc.a(zdoZdpFrameProcessor.o) (zdoBindManagerRequestCreate)
../BitCloud_ZIGBIT_1_7_0/BitCloud/Components/../lib\libBc_All_ZigBit_Atmega1281_Rf230_8Mhz_Gcc.a(zdoCheckState.o)
                              ../BitCloud_ZIGBIT_1_7_0/BitCloud/Components/../lib\libBc_All_ZigBit_Atmega1281_Rf230_8Mhz_Gcc.a(zdoNwkManager.o) (zdoCheckState)
../BitCloud_ZIGBIT_1_7_0/BitCloud/Components/../lib\libBc_All_ZigBit_Atmega1281_Rf230_8Mhz_Gcc.a(zdoDiscoveryManager.o)
                              ../BitCloud_ZIGBIT_1_7_0/BitCloud/Components/../lib\libBc_All_ZigBit_Atmega1281_Rf230_8Mhz_Gcc.a(zdoZdpFrameProcessor.o) (zdoZdpDiscoveryRequestCreate)
../BitCloud_ZIGBIT_1_7_0/BitCloud/Components/../lib\libBc_All_ZigBit_Atmega1281_Rf230_8Mhz_Gcc.a(zdoMem.o)
                              ../BitCloud_ZIGBIT_1_7_0/BitCloud/Components/../lib\libBc_All_ZigBit_Atmega1281_Rf230_8Mhz_Gcc.a(zdoNwkManager.o) (zdoMem)
../BitCloud_ZIGBIT_1_7_0/BitCloud/Components/../lib\libBc_All_ZigBit_Atmega1281_Rf230_8Mhz_Gcc.a(zdoNodeManager.o)
                              ../BitCloud_ZIGBIT_1_7_0/BitCloud/Components/../lib\libBc_All_ZigBit_Atmega1281_Rf230_8Mhz_Gcc.a(zdoZdpFrameProcessor.o) (zdoZdpNodeRequestCreate)
../BitCloud_ZIGBIT_1_7_0/BitCloud/Components/../lib\libBc_All_ZigBit_Atmega1281_Rf230_8Mhz_Gcc.a(zdoPowerManager.o)
                              ../BitCloud_ZIGBIT_1_7_0/BitCloud/Components/../lib\libBc_All_ZigBit_Atmega1281_Rf230_8Mhz_Gcc.a(zdoStateMachines.o) (zdoPowerManagerInit)
../BitCloud_ZIGBIT_1_7_0/BitCloud/Components/../lib\libBc_All_ZigBit_Atmega1281_Rf230_8Mhz_Gcc.a(zdoSecurityManager.o)
                              ../BitCloud_ZIGBIT_1_7_0/BitCloud/Components/../lib\libBc_All_ZigBit_Atmega1281_Rf230_8Mhz_Gcc.a(zdoTaskManager.o) (zdoSecurityManagerHandler)
../BitCloud_ZIGBIT_1_7_0/BitCloud/Components/../lib\libBc_All_ZigBit_Atmega1281_Rf230_8Mhz_Gcc.a(bcSysSleep.o)
                              ../BitCloud_ZIGBIT_1_7_0/BitCloud/Components/../lib\libBc_All_ZigBit_Atmega1281_Rf230_8Mhz_Gcc.a(zdoPowerManager.o) (SYS_Sleep)
../BitCloud_ZIGBIT_1_7_0/BitCloud/Components/../lib\libBc_All_ZigBit_Atmega1281_Rf230_8Mhz_Gcc.a(macMem.o)
                              ../BitCloud_ZIGBIT_1_7_0/BitCloud/Components/../lib\libBc_All_ZigBit_Atmega1281_Rf230_8Mhz_Gcc.a(machwdResetHandler.o) (macMem)
../BitCloud_ZIGBIT_1_7_0/BitCloud/Components/../lib\libBc_All_ZigBit_Atmega1281_Rf230_8Mhz_Gcc.a(macenvPib.o)
                              ../BitCloud_ZIGBIT_1_7_0/BitCloud/Components/../lib\libBc_All_ZigBit_Atmega1281_Rf230_8Mhz_Gcc.a(machwiScanHandler.o) (macenvGetPhySymbolDuration)
../BitCloud_ZIGBIT_1_7_0/BitCloud/Components/../lib\libBc_All_ZigBit_Atmega1281_Rf230_8Mhz_Gcc.a(machwdEdHandler.o)
                              ../BitCloud_ZIGBIT_1_7_0/BitCloud/Components/../lib\libBc_All_ZigBit_Atmega1281_Rf230_8Mhz_Gcc.a(machwdManager.o) (machwdEdTaskHandler)
../BitCloud_ZIGBIT_1_7_0/BitCloud/Components/../lib\libBc_All_ZigBit_Atmega1281_Rf230_8Mhz_Gcc.a(machwdFrameRoutine.o)
                              ../BitCloud_ZIGBIT_1_7_0/BitCloud/Components/../lib\libBc_All_ZigBit_Atmega1281_Rf230_8Mhz_Gcc.a(machwdTxFrameHandler.o) (machwdComposeFrame)
../BitCloud_ZIGBIT_1_7_0/BitCloud/Components/../lib\libBc_All_ZigBit_Atmega1281_Rf230_8Mhz_Gcc.a(machwdHandlerCtrl.o)
                              ../BitCloud_ZIGBIT_1_7_0/BitCloud/Components/../lib\libBc_All_ZigBit_Atmega1281_Rf230_8Mhz_Gcc.a(machwdManager.o) (machwdGetHandlerId)
../BitCloud_ZIGBIT_1_7_0/BitCloud/Components/../lib\libBc_All_ZigBit_Atmega1281_Rf230_8Mhz_Gcc.a(machwiAssociateHandler.o)
                              ../BitCloud_ZIGBIT_1_7_0/BitCloud/Components/../lib\libBc_All_ZigBit_Atmega1281_Rf230_8Mhz_Gcc.a(machwiResetHandler.o) (machwiResetAssociateHandler)
../BitCloud_ZIGBIT_1_7_0/BitCloud/Components/../lib\libBc_All_ZigBit_Atmega1281_Rf230_8Mhz_Gcc.a(machwiBeaconHandler.o)
                              ../BitCloud_ZIGBIT_1_7_0/BitCloud/Components/../lib\libBc_All_ZigBit_Atmega1281_Rf230_8Mhz_Gcc.a(machwiPanServer.o) (machwiBeaconReqInd)
../BitCloud_ZIGBIT_1_7_0/BitCloud/Components/../lib\libBc_All_ZigBit_Atmega1281_Rf230_8Mhz_Gcc.a(machwiDataHandler.o)
                              ../BitCloud_ZIGBIT_1_7_0/BitCloud/Components/../lib\libBc_All_ZigBit_Atmega1281_Rf230_8Mhz_Gcc.a(machwiOrphanHandler.o) (machwiConvertmachwdDataConfirmTypes)
../BitCloud_ZIGBIT_1_7_0/BitCloud/Components/../lib\libBc_All_ZigBit_Atmega1281_Rf230_8Mhz_Gcc.a(machwiHwdReqMemPool.o)
                              ../BitCloud_ZIGBIT_1_7_0/BitCloud/Components/../lib\libBc_All_ZigBit_Atmega1281_Rf230_8Mhz_Gcc.a(machwiResetHandler.o) (machwiResetHwdReqMemPool)
../BitCloud_ZIGBIT_1_7_0/BitCloud/Components/../lib\libBc_All_ZigBit_Atmega1281_Rf230_8Mhz_Gcc.a(nwkStateMachine.o)
                              ../BitCloud_ZIGBIT_1_7_0/BitCloud/Components/../lib\libBc_All_ZigBit_Atmega1281_Rf230_8Mhz_Gcc.a(zdoPowerManager.o) (NWK_IsActiveTransaction)
../BitCloud_ZIGBIT_1_7_0/BitCloud/Components/../lib\libBc_All_ZigBit_Atmega1281_Rf230_8Mhz_Gcc.a(phyEd.o)
                              ../BitCloud_ZIGBIT_1_7_0/BitCloud/Components/../lib\libBc_All_ZigBit_Atmega1281_Rf230_8Mhz_Gcc.a(machwdEdHandler.o) (PHY_EdReq)
../BitCloud_ZIGBIT_1_7_0/BitCloud/Components/../lib\libBc_All_ZigBit_Atmega1281_Rf230_8Mhz_Gcc.a(phyRtimerIrqDispatcher.o)
                              ../BitCloud_ZIGBIT_1_7_0/BitCloud/Components/../lib\libBc_All_ZigBit_Atmega1281_Rf230_8Mhz_Gcc.a(phyRxFrame.o) (phySetRTimerSource)
../BitCloud_ZIGBIT_1_7_0/BitCloud/Components/./ConfigServer/lib\libConfigServer.a(configServer.o)
                              ../BitCloud_ZIGBIT_1_7_0/BitCloud/Components/../lib\libBc_All_ZigBit_Atmega1281_Rf230_8Mhz_Gcc.a(apsDataManager.o) (CS_GetMemory)
../BitCloud_ZIGBIT_1_7_0/BitCloud/Components/./PersistDataServer/lib\libPersistDataServer.a(pdsDataServer.o)
                              ../BitCloud_ZIGBIT_1_7_0/BitCloud/Components/./ConfigServer/lib\libConfigServer.a(configServer.o) (PDS_Init)
../BitCloud_ZIGBIT_1_7_0/BitCloud/Components/./PersistDataServer/lib\libPersistDataServer.a(pdsWriteData.o)
                              ../BitCloud_ZIGBIT_1_7_0/BitCloud/Components/./PersistDataServer/lib\libPersistDataServer.a(pdsDataServer.o) (pdsGetId)
../BitCloud_ZIGBIT_1_7_0/BitCloud/Components/./PersistDataServer/lib\libPersistDataServer.a(pdsCrcService.o)
                              ../BitCloud_ZIGBIT_1_7_0/BitCloud/Components/./PersistDataServer/lib\libPersistDataServer.a(pdsDataServer.o) (pdsWaitMemoryFree)
../BitCloud_ZIGBIT_1_7_0/BitCloud/Components/./BSP/lib\libBSPMeshBean.a(bspTII.o)
                              ./objs/ncap_wilma.o (TIIstop)
../BitCloud_ZIGBIT_1_7_0/BitCloud/Components/./BSP/lib\libBSPMeshBean.a(bspTaskManager.o)
                              ../BitCloud_ZIGBIT_1_7_0/BitCloud/Components/../lib\libBc_All_ZigBit_Atmega1281_Rf230_8Mhz_Gcc.a(taskManager.o) (BSP_TaskHandler)
../BitCloud_ZIGBIT_1_7_0/BitCloud/Components/../lib\libHAL_ZigBit_Atmega1281_8Mhz_Gcc.a(sleep.o)
                              ../BitCloud_ZIGBIT_1_7_0/BitCloud/Components/../lib\libBc_All_ZigBit_Atmega1281_Rf230_8Mhz_Gcc.a(bcSysSleep.o) (HAL_Sleep)
../BitCloud_ZIGBIT_1_7_0/BitCloud/Components/../lib\libHAL_ZigBit_Atmega1281_8Mhz_Gcc.a(calibration.o)
                              ../BitCloud_ZIGBIT_1_7_0/BitCloud/Components/../lib\libHAL_ZigBit_Atmega1281_8Mhz_Gcc.a(sleep.o) (halStartingCalibrate)
../BitCloud_ZIGBIT_1_7_0/BitCloud/Components/../lib\libHAL_ZigBit_Atmega1281_8Mhz_Gcc.a(halInit.o)
                              ../BitCloud_ZIGBIT_1_7_0/BitCloud/Components/../lib\libBc_All_ZigBit_Atmega1281_Rf230_8Mhz_Gcc.a(main.o) (HAL_Init)
../BitCloud_ZIGBIT_1_7_0/BitCloud/Components/../lib\libHAL_ZigBit_Atmega1281_8Mhz_Gcc.a(halRfSpi.o)
                              ../BitCloud_ZIGBIT_1_7_0/BitCloud/Components/../lib\libHAL_ZigBit_Atmega1281_8Mhz_Gcc.a(halInit.o) (HAL_InitRfSpi)
../BitCloud_ZIGBIT_1_7_0/BitCloud/Components/../lib\libHAL_ZigBit_Atmega1281_8Mhz_Gcc.a(halRfCtrl.o)
                              ../BitCloud_ZIGBIT_1_7_0/BitCloud/Components/../lib\libBc_All_ZigBit_Atmega1281_Rf230_8Mhz_Gcc.a(phyInit.o) (HAL_ClearRfIrqFlag)
../BitCloud_ZIGBIT_1_7_0/BitCloud/Components/../lib\libHAL_ZigBit_Atmega1281_8Mhz_Gcc.a(halUid.o)
                              ../BitCloud_ZIGBIT_1_7_0/BitCloud/Components/../lib\libBc_All_ZigBit_Atmega1281_Rf230_8Mhz_Gcc.a(zdoStateMachines.o) (HAL_ReadUid)
../BitCloud_ZIGBIT_1_7_0/BitCloud/Components/../lib\libHAL_ZigBit_Atmega1281_8Mhz_Gcc.a(halMacIsr.o)
                              ../BitCloud_ZIGBIT_1_7_0/BitCloud/Components/../lib\libBc_All_ZigBit_Atmega1281_Rf230_8Mhz_Gcc.a(phyRxFrame.o) (__rtimer)
../BitCloud_ZIGBIT_1_7_0/BitCloud/Components/../lib\libHAL_ZigBit_Atmega1281_8Mhz_Gcc.a(halW1.o)
                              ../BitCloud_ZIGBIT_1_7_0/BitCloud/Components/../lib\libHAL_ZigBit_Atmega1281_8Mhz_Gcc.a(calibration.o) (__delay_us)
../BitCloud_ZIGBIT_1_7_0/BitCloud/Components/../lib\libHAL_ZigBit_Atmega1281_8Mhz_Gcc.a(halCalibration.o)
                              ../BitCloud_ZIGBIT_1_7_0/BitCloud/Components/../lib\libHAL_ZigBit_Atmega1281_8Mhz_Gcc.a(calibration.o) (halMeasurement)
../BitCloud_ZIGBIT_1_7_0/BitCloud/Components/../lib\libHAL_ZigBit_Atmega1281_8Mhz_Gcc.a(appTimer.o)
                              ../BitCloud_ZIGBIT_1_7_0/BitCloud/Components/../lib\libBc_All_ZigBit_Atmega1281_Rf230_8Mhz_Gcc.a(apsControlManager.o) (HAL_GetSystemTime)
../BitCloud_ZIGBIT_1_7_0/BitCloud/Components/../lib\libHAL_ZigBit_Atmega1281_8Mhz_Gcc.a(halTaskManager.o)
                              ../BitCloud_ZIGBIT_1_7_0/BitCloud/Components/../lib\libBc_All_ZigBit_Atmega1281_Rf230_8Mhz_Gcc.a(taskManager.o) (HAL_TaskHandler)
../BitCloud_ZIGBIT_1_7_0/BitCloud/Components/../lib\libHAL_ZigBit_Atmega1281_8Mhz_Gcc.a(usart.o)
                              ./objs/uart_buffer.o (HAL_CloseUsart)
../BitCloud_ZIGBIT_1_7_0/BitCloud/Components/../lib\libHAL_ZigBit_Atmega1281_8Mhz_Gcc.a(w1.o)
                              ../BitCloud_ZIGBIT_1_7_0/BitCloud/Components/../lib\libHAL_ZigBit_Atmega1281_8Mhz_Gcc.a(halUid.o) (HAL_SearchW1Device)
../BitCloud_ZIGBIT_1_7_0/BitCloud/Components/../lib\libHAL_ZigBit_Atmega1281_8Mhz_Gcc.a(irq.o)
                              ../BitCloud_ZIGBIT_1_7_0/BitCloud/Components/./BSP/lib\libBSPMeshBean.a(bspTII.o) (HAL_EnableIrq)
../BitCloud_ZIGBIT_1_7_0/BitCloud/Components/../lib\libHAL_ZigBit_Atmega1281_8Mhz_Gcc.a(i2cPacket.o)
                              ../BitCloud_ZIGBIT_1_7_0/BitCloud/Components/../lib\libHAL_ZigBit_Atmega1281_8Mhz_Gcc.a(halTaskManager.o) (halSig2WireSerialHandler)
../BitCloud_ZIGBIT_1_7_0/BitCloud/Components/../lib\libHAL_ZigBit_Atmega1281_8Mhz_Gcc.a(eeprom.o)
                              ../BitCloud_ZIGBIT_1_7_0/BitCloud/Components/./PersistDataServer/lib\libPersistDataServer.a(pdsDataServer.o) (HAL_ReadEeprom)
../BitCloud_ZIGBIT_1_7_0/BitCloud/Components/../lib\libHAL_ZigBit_Atmega1281_8Mhz_Gcc.a(timer.o)
                              ../BitCloud_ZIGBIT_1_7_0/BitCloud/Components/../lib\libHAL_ZigBit_Atmega1281_8Mhz_Gcc.a(appTimer.o) (halAddTimer)
../BitCloud_ZIGBIT_1_7_0/BitCloud/Components/../lib\libHAL_ZigBit_Atmega1281_8Mhz_Gcc.a(sleepTimer.o)
                              ../BitCloud_ZIGBIT_1_7_0/BitCloud/Components/../lib\libHAL_ZigBit_Atmega1281_8Mhz_Gcc.a(sleep.o) (halSleepTimerPointer)
../BitCloud_ZIGBIT_1_7_0/BitCloud/Components/../lib\libHAL_ZigBit_Atmega1281_8Mhz_Gcc.a(adc.o)
                              ../BitCloud_ZIGBIT_1_7_0/BitCloud/Components/../lib\libHAL_ZigBit_Atmega1281_8Mhz_Gcc.a(halTaskManager.o) (halSigAdcHandler)
../BitCloud_ZIGBIT_1_7_0/BitCloud/Components/../lib\libHAL_ZigBit_Atmega1281_8Mhz_Gcc.a(spi.o)
                              ../BitCloud_ZIGBIT_1_7_0/BitCloud/Components/./BSP/lib\libBSPMeshBean.a(bspTII.o) (HAL_ReadSpi)
../BitCloud_ZIGBIT_1_7_0/BitCloud/Components/../lib\libHAL_ZigBit_Atmega1281_8Mhz_Gcc.a(halAppClock.o)
                              ../BitCloud_ZIGBIT_1_7_0/BitCloud/Components/../lib\libHAL_ZigBit_Atmega1281_8Mhz_Gcc.a(halInit.o) (halInitAppClock)
../BitCloud_ZIGBIT_1_7_0/BitCloud/Components/../lib\libHAL_ZigBit_Atmega1281_8Mhz_Gcc.a(halClkCtrl.o)
                              ../BitCloud_ZIGBIT_1_7_0/BitCloud/Components/../lib\libHAL_ZigBit_Atmega1281_8Mhz_Gcc.a(sleep.o) (halGetClockSource)
../BitCloud_ZIGBIT_1_7_0/BitCloud/Components/../lib\libHAL_ZigBit_Atmega1281_8Mhz_Gcc.a(halUsart.o)
                              ../BitCloud_ZIGBIT_1_7_0/BitCloud/Components/../lib\libHAL_ZigBit_Atmega1281_8Mhz_Gcc.a(usart.o) (halSetUsartConfig)
../BitCloud_ZIGBIT_1_7_0/BitCloud/Components/../lib\libHAL_ZigBit_Atmega1281_8Mhz_Gcc.a(halIrq.o)
                              ../BitCloud_ZIGBIT_1_7_0/BitCloud/Components/../lib\libHAL_ZigBit_Atmega1281_8Mhz_Gcc.a(halInit.o) (halSetIrqConfig)
../BitCloud_ZIGBIT_1_7_0/BitCloud/Components/../lib\libHAL_ZigBit_Atmega1281_8Mhz_Gcc.a(i2c.o)
                              ../BitCloud_ZIGBIT_1_7_0/BitCloud/Components/../lib\libHAL_ZigBit_Atmega1281_8Mhz_Gcc.a(i2cPacket.o) (halInitI2c)
../BitCloud_ZIGBIT_1_7_0/BitCloud/Components/../lib\libHAL_ZigBit_Atmega1281_8Mhz_Gcc.a(halEeprom.o)
                              ../BitCloud_ZIGBIT_1_7_0/BitCloud/Components/../lib\libHAL_ZigBit_Atmega1281_8Mhz_Gcc.a(eeprom.o) (halEepromWrite)
../BitCloud_ZIGBIT_1_7_0/BitCloud/Components/../lib\libHAL_ZigBit_Atmega1281_8Mhz_Gcc.a(halSleepTimerClock.o)
                              ../BitCloud_ZIGBIT_1_7_0/BitCloud/Components/../lib\libHAL_ZigBit_Atmega1281_8Mhz_Gcc.a(sleepTimer.o) (halClearTimeControl)
../BitCloud_ZIGBIT_1_7_0/BitCloud/Components/../lib\libHAL_ZigBit_Atmega1281_8Mhz_Gcc.a(halAdc.o)
                              ../BitCloud_ZIGBIT_1_7_0/BitCloud/Components/../lib\libHAL_ZigBit_Atmega1281_8Mhz_Gcc.a(adc.o) (halCloseAdc)
../BitCloud_ZIGBIT_1_7_0/BitCloud/Components/../lib\libHAL_ZigBit_Atmega1281_8Mhz_Gcc.a(halSpi.o)
                              ../BitCloud_ZIGBIT_1_7_0/BitCloud/Components/../lib\libHAL_ZigBit_Atmega1281_8Mhz_Gcc.a(spi.o) (halSetSpiConfig)
../BitCloud_ZIGBIT_1_7_0/BitCloud/Components/../lib\libBc_All_ZigBit_Atmega1281_Rf230_8Mhz_Gcc.a(phyRfIrqDispatcher.o)
                              ../BitCloud_ZIGBIT_1_7_0/BitCloud/Components/../lib\libHAL_ZigBit_Atmega1281_8Mhz_Gcc.a(halMacIsr.o) (phyDispatcheRfInterrupt)
c:/winavr-20090313/bin/../lib/gcc/avr/4.3.2/avr51\libgcc.a(_mulsi3.o)
                              ../BitCloud_ZIGBIT_1_7_0/BitCloud/Components/../lib\libBc_All_ZigBit_Atmega1281_Rf230_8Mhz_Gcc.a(apsDataManager.o) (__mulsi3)
c:/winavr-20090313/bin/../lib/gcc/avr/4.3.2/avr51\libgcc.a(_udivmodqi4.o)
                              ../BitCloud_ZIGBIT_1_7_0/BitCloud/Components/../lib\libBc_All_ZigBit_Atmega1281_Rf230_8Mhz_Gcc.a(apsDataManager.o) (__udivmodqi4)
c:/winavr-20090313/bin/../lib/gcc/avr/4.3.2/avr51\libgcc.a(_udivmodhi4.o)
                              ../BitCloud_ZIGBIT_1_7_0/BitCloud/Components/../lib\libBc_All_ZigBit_Atmega1281_Rf230_8Mhz_Gcc.a(apsDataManager.o) (__udivmodhi4)
c:/winavr-20090313/bin/../lib/gcc/avr/4.3.2/avr51\libgcc.a(_divmodhi4.o)
                              ../BitCloud_ZIGBIT_1_7_0/BitCloud/Components/../lib\libBc_All_ZigBit_Atmega1281_Rf230_8Mhz_Gcc.a(nwkAddressMap.o) (__divmodhi4)
c:/winavr-20090313/bin/../lib/gcc/avr/4.3.2/avr51\libgcc.a(_udivmodsi4.o)
                              ../BitCloud_ZIGBIT_1_7_0/BitCloud/Components/../lib\libBc_All_ZigBit_Atmega1281_Rf230_8Mhz_Gcc.a(apsDataManager.o) (__udivmodsi4)
c:/winavr-20090313/bin/../lib/gcc/avr/4.3.2/avr51\libgcc.a(_prologue.o)
                              ./objs/uart_buffer.o (__prologue_saves__)
c:/winavr-20090313/bin/../lib/gcc/avr/4.3.2/avr51\libgcc.a(_epilogue.o)
                              ./objs/uart_buffer.o (__epilogue_restores__)
c:/winavr-20090313/bin/../lib/gcc/avr/4.3.2/avr51\libgcc.a(_exit.o)
                              c:/winavr-20090313/bin/../lib/gcc/avr/4.3.2/../../../../avr/lib/avr51/crtm1281.o (exit)
c:/winavr-20090313/bin/../lib/gcc/avr/4.3.2/avr51\libgcc.a(_tablejump.o)
                              ../BitCloud_ZIGBIT_1_7_0/BitCloud/Components/../lib\libBc_All_ZigBit_Atmega1281_Rf230_8Mhz_Gcc.a(nwkReset.o) (__tablejump2__)
c:/winavr-20090313/bin/../lib/gcc/avr/4.3.2/avr51\libgcc.a(_clear_bss.o)
                              ./objs/messages.o (__do_clear_bss)
c:/winavr-20090313/bin/../lib/gcc/avr/4.3.2/avr51\libgcc.a(_lshrdi3.o)
                              ../BitCloud_ZIGBIT_1_7_0/BitCloud/Components/../lib\libBc_All_ZigBit_Atmega1281_Rf230_8Mhz_Gcc.a(nwkRouteDiscovery.o) (__lshrdi3)
c:/winavr-20090313/bin/../lib/gcc/avr/4.3.2/avr51\libgcc.a(_ashldi3.o)
                              ../BitCloud_ZIGBIT_1_7_0/BitCloud/Components/../lib\libHAL_ZigBit_Atmega1281_8Mhz_Gcc.a(appTimer.o) (__ashldi3)
c:/winavr-20090313/bin/../lib/gcc/avr/4.3.2/../../../../avr/lib/avr51\libc.a(rand.o)
                              ../BitCloud_ZIGBIT_1_7_0/BitCloud/Components/../lib\libBc_All_ZigBit_Atmega1281_Rf230_8Mhz_Gcc.a(apsDataManager.o) (rand)
c:/winavr-20090313/bin/../lib/gcc/avr/4.3.2/../../../../avr/lib/avr51\libc.a(memcpy_P.o)
                              ../BitCloud_ZIGBIT_1_7_0/BitCloud/Components/../lib\libBc_All_ZigBit_Atmega1281_Rf230_8Mhz_Gcc.a(apsTaskManager.o) (memcpy_P)
c:/winavr-20090313/bin/../lib/gcc/avr/4.3.2/../../../../avr/lib/avr51\libc.a(memcmp.o)
                              ../BitCloud_ZIGBIT_1_7_0/BitCloud/Components/../lib\libBc_All_ZigBit_Atmega1281_Rf230_8Mhz_Gcc.a(apsBindManager.o) (memcmp)
c:/winavr-20090313/bin/../lib/gcc/avr/4.3.2/../../../../avr/lib/avr51\libc.a(memcpy.o)
                              ../BitCloud_ZIGBIT_1_7_0/BitCloud/Components/../lib\libBc_All_ZigBit_Atmega1281_Rf230_8Mhz_Gcc.a(apsDataManager.o) (memcpy)
c:/winavr-20090313/bin/../lib/gcc/avr/4.3.2/../../../../avr/lib/avr51\libc.a(memset.o)
                              ../BitCloud_ZIGBIT_1_7_0/BitCloud/Components/../lib\libBc_All_ZigBit_Atmega1281_Rf230_8Mhz_Gcc.a(apsDataManager.o) (memset)
c:/winavr-20090313/bin/../lib/gcc/avr/4.3.2/avr51\libgcc.a(_divmodsi4.o)
                              c:/winavr-20090313/bin/../lib/gcc/avr/4.3.2/../../../../avr/lib/avr51\libc.a(rand.o) (__divmodsi4)

Allocating common symbols
Common symbol       size              file

__dataStatus        0x1               ../BitCloud_ZIGBIT_1_7_0/BitCloud/Components/../lib\libBc_All_ZigBit_Atmega1281_Rf230_8Mhz_Gcc.a(machwdTxFrameHandler.o)
TII_CHNRCallback    0x2               ../BitCloud_ZIGBIT_1_7_0/BitCloud/Components/./BSP/lib\libBSPMeshBean.a(bspTII.o)
macMem              0x138             ../BitCloud_ZIGBIT_1_7_0/BitCloud/Components/../lib\libBc_All_ZigBit_Atmega1281_Rf230_8Mhz_Gcc.a(macMem.o)
pdsEepromSaveServiceTimer
                    0xd               ../BitCloud_ZIGBIT_1_7_0/BitCloud/Components/./PersistDataServer/lib\libPersistDataServer.a(pdsWriteData.o)
nwkMem              0x261             ../BitCloud_ZIGBIT_1_7_0/BitCloud/Components/../lib\libBc_All_ZigBit_Atmega1281_Rf230_8Mhz_Gcc.a(nwkMem.o)
pdsCurrentState     0x3               ../BitCloud_ZIGBIT_1_7_0/BitCloud/Components/./PersistDataServer/lib\libPersistDataServer.a(pdsWriteData.o)
halAdcControl       0x2               ../BitCloud_ZIGBIT_1_7_0/BitCloud/Components/../lib\libHAL_ZigBit_Atmega1281_8Mhz_Gcc.a(adc.o)
__currentPositionPtr
                    0x2               ../BitCloud_ZIGBIT_1_7_0/BitCloud/Components/../lib\libBc_All_ZigBit_Atmega1281_Rf230_8Mhz_Gcc.a(phyRxFrame.o)
halEepromParams     0x6               ../BitCloud_ZIGBIT_1_7_0/BitCloud/Components/../lib\libHAL_ZigBit_Atmega1281_8Mhz_Gcc.a(eeprom.o)
apsAIB              0x21              ../BitCloud_ZIGBIT_1_7_0/BitCloud/Components/../lib\libBc_All_ZigBit_Atmega1281_Rf230_8Mhz_Gcc.a(apsAibManager.o)
zdoMem              0x3be             ../BitCloud_ZIGBIT_1_7_0/BitCloud/Components/../lib\libBc_All_ZigBit_Atmega1281_Rf230_8Mhz_Gcc.a(zdoMem.o)
machwdFrameRetries  0x1               ../BitCloud_ZIGBIT_1_7_0/BitCloud/Components/../lib\libBc_All_ZigBit_Atmega1281_Rf230_8Mhz_Gcc.a(machwdTxFrameHandler.o)
pdsStackEepromParams
                    0x6               ../BitCloud_ZIGBIT_1_7_0/BitCloud/Components/./PersistDataServer/lib\libPersistDataServer.a(pdsWriteData.o)
TII_SMCallback      0x2               ../BitCloud_ZIGBIT_1_7_0/BitCloud/Components/./BSP/lib\libBSPMeshBean.a(bspTII.o)
TII_IDCallback      0x2               ../BitCloud_ZIGBIT_1_7_0/BitCloud/Components/./BSP/lib\libBSPMeshBean.a(bspTII.o)
__rssi              0x1               ../BitCloud_ZIGBIT_1_7_0/BitCloud/Components/../lib\libBc_All_ZigBit_Atmega1281_Rf230_8Mhz_Gcc.a(phyRxFrame.o)
__rxByteCounter     0x1               ../BitCloud_ZIGBIT_1_7_0/BitCloud/Components/../lib\libBc_All_ZigBit_Atmega1281_Rf230_8Mhz_Gcc.a(phyRxFrame.o)
__phyTrxCmd         0x1               ../BitCloud_ZIGBIT_1_7_0/BitCloud/Components/../lib\libBc_All_ZigBit_Atmega1281_Rf230_8Mhz_Gcc.a(phyTxFrame.o)
halI2cPacketControl
                    0xb               ../BitCloud_ZIGBIT_1_7_0/BitCloud/Components/../lib\libHAL_ZigBit_Atmega1281_8Mhz_Gcc.a(i2cPacket.o)
TII_stCallback      0x2               ../BitCloud_ZIGBIT_1_7_0/BitCloud/Components/./BSP/lib\libBSPMeshBean.a(bspTII.o)
TII_CMCallback      0x2               ../BitCloud_ZIGBIT_1_7_0/BitCloud/Components/./BSP/lib\libBSPMeshBean.a(bspTII.o)
__energyLevel       0x1               ../BitCloud_ZIGBIT_1_7_0/BitCloud/Components/../lib\libBc_All_ZigBit_Atmega1281_Rf230_8Mhz_Gcc.a(machwdEdHandler.o)
txBuffer            0x21              ../BitCloud_ZIGBIT_1_7_0/BitCloud/Components/../lib\libBc_All_ZigBit_Atmega1281_Rf230_8Mhz_Gcc.a(machwdFrameRoutine.o)
__rtimer            0x5               ../BitCloud_ZIGBIT_1_7_0/BitCloud/Components/../lib\libHAL_ZigBit_Atmega1281_8Mhz_Gcc.a(halMacIsr.o)
DataReadyCb         0x2               ../BitCloud_ZIGBIT_1_7_0/BitCloud/Components/./BSP/lib\libBSPMeshBean.a(bspTII.o)
__sourceHandler     0x1               ../BitCloud_ZIGBIT_1_7_0/BitCloud/Components/../lib\libBc_All_ZigBit_Atmega1281_Rf230_8Mhz_Gcc.a(machwdTrxCtrl.o)
halEepromDone       0x2               ../BitCloud_ZIGBIT_1_7_0/BitCloud/Components/../lib\libHAL_ZigBit_Atmega1281_8Mhz_Gcc.a(eeprom.o)
zdoZIB              0x40              ../BitCloud_ZIGBIT_1_7_0/BitCloud/Components/../lib\libBc_All_ZigBit_Atmega1281_Rf230_8Mhz_Gcc.a(zib.o)

Discarded input sections

 .data          0x00000000        0x0 c:/winavr-20090313/bin/../lib/gcc/avr/4.3.2/../../../../avr/lib/avr51/crtm1281.o
 .bss           0x00000000        0x0 c:/winavr-20090313/bin/../lib/gcc/avr/4.3.2/../../../../avr/lib/avr51/crtm1281.o
 .init9         0x00000000        0x0 c:/winavr-20090313/bin/../lib/gcc/avr/4.3.2/../../../../avr/lib/avr51/crtm1281.o
 .text          0x00000000        0x0 ./objs/messages.o
 .text          0x00000000        0x0 ./objs/ncap_wilma.o
 .text.ZDO_SleepInd
                0x00000000        0x0 ./objs/ncap_wilma.o
 .text          0x00000000        0x0 ./objs/nwkConfig.o
 .bss           0x00000000        0x0 ./objs/nwkConfig.o
 .text          0x00000000        0x0 ./objs/uart_buffer.o
 .data          0x00000000        0x0 ./objs/uart_buffer.o
 .text.increase_wptr
                0x00000000        0x0 ./objs/uart_buffer.o
 .text.increase_rptr
                0x00000000        0x0 ./objs/uart_buffer.o
 .text.get_buffer_lth
                0x00000000        0x0 ./objs/uart_buffer.o
 .text.IsUARTBusy
                0x00000000        0x0 ./objs/uart_buffer.o
 .text.rxCallback
                0x00000000        0x0 ./objs/uart_buffer.o
 .text.uartClose
                0x00000000        0x0 ./objs/uart_buffer.o
 .text          0x00000000        0x0 ../BitCloud_ZIGBIT_1_7_0/BitCloud/Components/../lib/WdtInitatmega1281Gcc.o
 .data          0x00000000        0x0 ../BitCloud_ZIGBIT_1_7_0/BitCloud/Components/../lib/WdtInitatmega1281Gcc.o
 .bss           0x00000000        0x0 ../BitCloud_ZIGBIT_1_7_0/BitCloud/Components/../lib/WdtInitatmega1281Gcc.o
 .text          0x00000000        0x0 ../BitCloud_ZIGBIT_1_7_0/BitCloud/Components/../lib\libBc_All_ZigBit_Atmega1281_Rf230_8Mhz_Gcc.a(apsControlManager.o)
 .text.apsGetSystemTimeOnStopEvent
                0x00000000        0x0 ../BitCloud_ZIGBIT_1_7_0/BitCloud/Components/../lib\libBc_All_ZigBit_Atmega1281_Rf230_8Mhz_Gcc.a(apsControlManager.o)
 .text.APS_StopEndpointIndication
                0x00000000        0x0 ../BitCloud_ZIGBIT_1_7_0/BitCloud/Components/../lib\libBc_All_ZigBit_Atmega1281_Rf230_8Mhz_Gcc.a(apsControlManager.o)
 .text.APS_ResumeEndpointIndication
                0x00000000        0x0 ../BitCloud_ZIGBIT_1_7_0/BitCloud/Components/../lib\libBc_All_ZigBit_Atmega1281_Rf230_8Mhz_Gcc.a(apsControlManager.o)
 .text.apsResetControlManager
                0x00000000        0x0 ../BitCloud_ZIGBIT_1_7_0/BitCloud/Components/../lib\libBc_All_ZigBit_Atmega1281_Rf230_8Mhz_Gcc.a(apsControlManager.o)
 .text.APS_UnregisterEndpointReq
                0x00000000        0x0 ../BitCloud_ZIGBIT_1_7_0/BitCloud/Components/../lib\libBc_All_ZigBit_Atmega1281_Rf230_8Mhz_Gcc.a(apsControlManager.o)
 .text          0x00000000        0x0 ../BitCloud_ZIGBIT_1_7_0/BitCloud/Components/../lib\libBc_All_ZigBit_Atmega1281_Rf230_8Mhz_Gcc.a(apsDataManager.o)
 .text.apsGetApsCounter
                0x00000000        0x0 ../BitCloud_ZIGBIT_1_7_0/BitCloud/Components/../lib\libBc_All_ZigBit_Atmega1281_Rf230_8Mhz_Gcc.a(apsDataManager.o)
 .text.apsGetNsduHandle
                0x00000000        0x0 ../BitCloud_ZIGBIT_1_7_0/BitCloud/Components/../lib\libBc_All_ZigBit_Atmega1281_Rf230_8Mhz_Gcc.a(apsDataManager.o)
 .text.apsCheckCompleteDataManagerStop
                0x00000000        0x0 ../BitCloud_ZIGBIT_1_7_0/BitCloud/Components/../lib\libBc_All_ZigBit_Atmega1281_Rf230_8Mhz_Gcc.a(apsDataManager.o)
 .text.apsFindShortByExt
                0x00000000        0x0 ../BitCloud_ZIGBIT_1_7_0/BitCloud/Components/../lib\libBc_All_ZigBit_Atmega1281_Rf230_8Mhz_Gcc.a(apsDataManager.o)
 .text.apsFindExtByShort
                0x00000000        0x0 ../BitCloud_ZIGBIT_1_7_0/BitCloud/Components/../lib\libBc_All_ZigBit_Atmega1281_Rf230_8Mhz_Gcc.a(apsDataManager.o)
 .text.apsStartAfterStopDataManager
                0x00000000        0x0 ../BitCloud_ZIGBIT_1_7_0/BitCloud/Components/../lib\libBc_All_ZigBit_Atmega1281_Rf230_8Mhz_Gcc.a(apsDataManager.o)
 .text.apsGetOwnExtAddress
                0x00000000        0x0 ../BitCloud_ZIGBIT_1_7_0/BitCloud/Components/../lib\libBc_All_ZigBit_Atmega1281_Rf230_8Mhz_Gcc.a(apsDataManager.o)
 .text          0x00000000        0x0 ../BitCloud_ZIGBIT_1_7_0/BitCloud/Components/../lib\libBc_All_ZigBit_Atmega1281_Rf230_8Mhz_Gcc.a(apsGroupManager.o)
 .data          0x00000000        0x0 ../BitCloud_ZIGBIT_1_7_0/BitCloud/Components/../lib\libBc_All_ZigBit_Atmega1281_Rf230_8Mhz_Gcc.a(apsGroupManager.o)
 .text.apsCheckUserEndpointValue
                0x00000000        0x0 ../BitCloud_ZIGBIT_1_7_0/BitCloud/Components/../lib\libBc_All_ZigBit_Atmega1281_Rf230_8Mhz_Gcc.a(apsGroupManager.o)
 .text.apsRemoveGroup
                0x00000000        0x0 ../BitCloud_ZIGBIT_1_7_0/BitCloud/Components/../lib\libBc_All_ZigBit_Atmega1281_Rf230_8Mhz_Gcc.a(apsGroupManager.o)
 .text.APS_RemoveGroupReq
                0x00000000        0x0 ../BitCloud_ZIGBIT_1_7_0/BitCloud/Components/../lib\libBc_All_ZigBit_Atmega1281_Rf230_8Mhz_Gcc.a(apsGroupManager.o)
 .text.apsRemoveAllGroups
                0x00000000        0x0 ../BitCloud_ZIGBIT_1_7_0/BitCloud/Components/../lib\libBc_All_ZigBit_Atmega1281_Rf230_8Mhz_Gcc.a(apsGroupManager.o)
 .text.APS_RemoveAllGroupsReq
                0x00000000        0x0 ../BitCloud_ZIGBIT_1_7_0/BitCloud/Components/../lib\libBc_All_ZigBit_Atmega1281_Rf230_8Mhz_Gcc.a(apsGroupManager.o)
 .text.apsAddGroup
                0x00000000        0x0 ../BitCloud_ZIGBIT_1_7_0/BitCloud/Components/../lib\libBc_All_ZigBit_Atmega1281_Rf230_8Mhz_Gcc.a(apsGroupManager.o)
 .text.APS_AddGroupReq
                0x00000000        0x0 ../BitCloud_ZIGBIT_1_7_0/BitCloud/Components/../lib\libBc_All_ZigBit_Atmega1281_Rf230_8Mhz_Gcc.a(apsGroupManager.o)
 .text          0x00000000        0x0 ../BitCloud_ZIGBIT_1_7_0/BitCloud/Components/../lib\libBc_All_ZigBit_Atmega1281_Rf230_8Mhz_Gcc.a(apsStateMachine.o)
 .data          0x00000000        0x0 ../BitCloud_ZIGBIT_1_7_0/BitCloud/Components/../lib\libBc_All_ZigBit_Atmega1281_Rf230_8Mhz_Gcc.a(apsStateMachine.o)
 .text          0x00000000        0x0 ../BitCloud_ZIGBIT_1_7_0/BitCloud/Components/../lib\libBc_All_ZigBit_Atmega1281_Rf230_8Mhz_Gcc.a(apsTaskManager.o)
 .data          0x00000000        0x0 ../BitCloud_ZIGBIT_1_7_0/BitCloud/Components/../lib\libBc_All_ZigBit_Atmega1281_Rf230_8Mhz_Gcc.a(apsTaskManager.o)
 .text.apsStartAfterStopTaskManager
                0x00000000        0x0 ../BitCloud_ZIGBIT_1_7_0/BitCloud/Components/../lib\libBc_All_ZigBit_Atmega1281_Rf230_8Mhz_Gcc.a(apsTaskManager.o)
 .text          0x00000000        0x0 ../BitCloud_ZIGBIT_1_7_0/BitCloud/Components/../lib\libBc_All_ZigBit_Atmega1281_Rf230_8Mhz_Gcc.a(apsTimer.o)
 .data          0x00000000        0x0 ../BitCloud_ZIGBIT_1_7_0/BitCloud/Components/../lib\libBc_All_ZigBit_Atmega1281_Rf230_8Mhz_Gcc.a(apsTimer.o)
 .bss           0x00000000        0x0 ../BitCloud_ZIGBIT_1_7_0/BitCloud/Components/../lib\libBc_All_ZigBit_Atmega1281_Rf230_8Mhz_Gcc.a(apsTimer.o)
 .text          0x00000000        0x0 ../BitCloud_ZIGBIT_1_7_0/BitCloud/Components/../lib\libBc_All_ZigBit_Atmega1281_Rf230_8Mhz_Gcc.a(main.o)
 .data          0x00000000        0x0 ../BitCloud_ZIGBIT_1_7_0/BitCloud/Components/../lib\libBc_All_ZigBit_Atmega1281_Rf230_8Mhz_Gcc.a(main.o)
 .bss           0x00000000        0x0 ../BitCloud_ZIGBIT_1_7_0/BitCloud/Components/../lib\libBc_All_ZigBit_Atmega1281_Rf230_8Mhz_Gcc.a(main.o)
 .text          0x00000000        0x0 ../BitCloud_ZIGBIT_1_7_0/BitCloud/Components/../lib\libBc_All_ZigBit_Atmega1281_Rf230_8Mhz_Gcc.a(nwkAddress.o)
 .data          0x00000000        0x0 ../BitCloud_ZIGBIT_1_7_0/BitCloud/Components/../lib\libBc_All_ZigBit_Atmega1281_Rf230_8Mhz_Gcc.a(nwkAddress.o)
 .bss           0x00000000        0x0 ../BitCloud_ZIGBIT_1_7_0/BitCloud/Components/../lib\libBc_All_ZigBit_Atmega1281_Rf230_8Mhz_Gcc.a(nwkAddress.o)
 .text.NWK_SetShortAddr
                0x00000000        0x0 ../BitCloud_ZIGBIT_1_7_0/BitCloud/Components/../lib\libBc_All_ZigBit_Atmega1281_Rf230_8Mhz_Gcc.a(nwkAddress.o)
 .text.MAC_SetConf
                0x00000000        0x0 ../BitCloud_ZIGBIT_1_7_0/BitCloud/Components/../lib\libBc_All_ZigBit_Atmega1281_Rf230_8Mhz_Gcc.a(nwkAddress.o)
 .text          0x00000000        0x0 ../BitCloud_ZIGBIT_1_7_0/BitCloud/Components/../lib\libBc_All_ZigBit_Atmega1281_Rf230_8Mhz_Gcc.a(nwkAddressMap.o)
 .data          0x00000000        0x0 ../BitCloud_ZIGBIT_1_7_0/BitCloud/Components/../lib\libBc_All_ZigBit_Atmega1281_Rf230_8Mhz_Gcc.a(nwkAddressMap.o)
 .bss           0x00000000        0x0 ../BitCloud_ZIGBIT_1_7_0/BitCloud/Components/../lib\libBc_All_ZigBit_Atmega1281_Rf230_8Mhz_Gcc.a(nwkAddressMap.o)
 .text.NWK_RemoveFromAddressMap
                0x00000000        0x0 ../BitCloud_ZIGBIT_1_7_0/BitCloud/Components/../lib\libBc_All_ZigBit_Atmega1281_Rf230_8Mhz_Gcc.a(nwkAddressMap.o)
 .text          0x00000000        0x0 ../BitCloud_ZIGBIT_1_7_0/BitCloud/Components/../lib\libBc_All_ZigBit_Atmega1281_Rf230_8Mhz_Gcc.a(nwkDataReq.o)
 .data          0x00000000        0x0 ../BitCloud_ZIGBIT_1_7_0/BitCloud/Components/../lib\libBc_All_ZigBit_Atmega1281_Rf230_8Mhz_Gcc.a(nwkDataReq.o)
 .bss           0x00000000        0x0 ../BitCloud_ZIGBIT_1_7_0/BitCloud/Components/../lib\libBc_All_ZigBit_Atmega1281_Rf230_8Mhz_Gcc.a(nwkDataReq.o)
 .text          0x00000000        0x0 ../BitCloud_ZIGBIT_1_7_0/BitCloud/Components/../lib\libBc_All_ZigBit_Atmega1281_Rf230_8Mhz_Gcc.a(nwkFrame.o)
 .data          0x00000000        0x0 ../BitCloud_ZIGBIT_1_7_0/BitCloud/Components/../lib\libBc_All_ZigBit_Atmega1281_Rf230_8Mhz_Gcc.a(nwkFrame.o)
 .bss           0x00000000        0x0 ../BitCloud_ZIGBIT_1_7_0/BitCloud/Components/../lib\libBc_All_ZigBit_Atmega1281_Rf230_8Mhz_Gcc.a(nwkFrame.o)
 .text          0x00000000        0x0 ../BitCloud_ZIGBIT_1_7_0/BitCloud/Components/../lib\libBc_All_ZigBit_Atmega1281_Rf230_8Mhz_Gcc.a(nwkMem.o)
 .data          0x00000000        0x0 ../BitCloud_ZIGBIT_1_7_0/BitCloud/Components/../lib\libBc_All_ZigBit_Atmega1281_Rf230_8Mhz_Gcc.a(nwkMem.o)
 .bss           0x00000000        0x0 ../BitCloud_ZIGBIT_1_7_0/BitCloud/Components/../lib\libBc_All_ZigBit_Atmega1281_Rf230_8Mhz_Gcc.a(nwkMem.o)
 .text          0x00000000        0x0 ../BitCloud_ZIGBIT_1_7_0/BitCloud/Components/../lib\libBc_All_ZigBit_Atmega1281_Rf230_8Mhz_Gcc.a(nwkNeighborTable.o)
 .bss           0x00000000        0x0 ../BitCloud_ZIGBIT_1_7_0/BitCloud/Components/../lib\libBc_All_ZigBit_Atmega1281_Rf230_8Mhz_Gcc.a(nwkNeighborTable.o)
 .text.NWK_GetNeighborsRssi
                0x00000000        0x0 ../BitCloud_ZIGBIT_1_7_0/BitCloud/Components/../lib\libBc_All_ZigBit_Atmega1281_Rf230_8Mhz_Gcc.a(nwkNeighborTable.o)
 .text          0x00000000        0x0 ../BitCloud_ZIGBIT_1_7_0/BitCloud/Components/../lib\libBc_All_ZigBit_Atmega1281_Rf230_8Mhz_Gcc.a(nwkReset.o)
 .data          0x00000000        0x0 ../BitCloud_ZIGBIT_1_7_0/BitCloud/Components/../lib\libBc_All_ZigBit_Atmega1281_Rf230_8Mhz_Gcc.a(nwkReset.o)
 .bss           0x00000000        0x0 ../BitCloud_ZIGBIT_1_7_0/BitCloud/Components/../lib\libBc_All_ZigBit_Atmega1281_Rf230_8Mhz_Gcc.a(nwkReset.o)
 .text          0x00000000        0x0 ../BitCloud_ZIGBIT_1_7_0/BitCloud/Components/../lib\libBc_All_ZigBit_Atmega1281_Rf230_8Mhz_Gcc.a(nwkRouteDiscovery.o)
 .data          0x00000000        0x0 ../BitCloud_ZIGBIT_1_7_0/BitCloud/Components/../lib\libBc_All_ZigBit_Atmega1281_Rf230_8Mhz_Gcc.a(nwkRouteDiscovery.o)
 .bss           0x00000000        0x0 ../BitCloud_ZIGBIT_1_7_0/BitCloud/Components/../lib\libBc_All_ZigBit_Atmega1281_Rf230_8Mhz_Gcc.a(nwkRouteDiscovery.o)
 .text          0x00000000        0x0 ../BitCloud_ZIGBIT_1_7_0/BitCloud/Components/../lib\libBc_All_ZigBit_Atmega1281_Rf230_8Mhz_Gcc.a(nwkRouteReply.o)
 .data          0x00000000        0x0 ../BitCloud_ZIGBIT_1_7_0/BitCloud/Components/../lib\libBc_All_ZigBit_Atmega1281_Rf230_8Mhz_Gcc.a(nwkRouteReply.o)
 .bss           0x00000000        0x0 ../BitCloud_ZIGBIT_1_7_0/BitCloud/Components/../lib\libBc_All_ZigBit_Atmega1281_Rf230_8Mhz_Gcc.a(nwkRouteReply.o)
 .text          0x00000000        0x0 ../BitCloud_ZIGBIT_1_7_0/BitCloud/Components/../lib\libBc_All_ZigBit_Atmega1281_Rf230_8Mhz_Gcc.a(nwkRouteRequest.o)
 .data          0x00000000        0x0 ../BitCloud_ZIGBIT_1_7_0/BitCloud/Components/../lib\libBc_All_ZigBit_Atmega1281_Rf230_8Mhz_Gcc.a(nwkRouteRequest.o)
 .bss           0x00000000        0x0 ../BitCloud_ZIGBIT_1_7_0/BitCloud/Components/../lib\libBc_All_ZigBit_Atmega1281_Rf230_8Mhz_Gcc.a(nwkRouteRequest.o)
 .text          0x00000000        0x0 ../BitCloud_ZIGBIT_1_7_0/BitCloud/Components/../lib\libBc_All_ZigBit_Atmega1281_Rf230_8Mhz_Gcc.a(nwkRouteTable.o)
 .data          0x00000000        0x0 ../BitCloud_ZIGBIT_1_7_0/BitCloud/Components/../lib\libBc_All_ZigBit_Atmega1281_Rf230_8Mhz_Gcc.a(nwkRouteTable.o)
 .bss           0x00000000        0x0 ../BitCloud_ZIGBIT_1_7_0/BitCloud/Components/../lib\libBc_All_ZigBit_Atmega1281_Rf230_8Mhz_Gcc.a(nwkRouteTable.o)
 .text.nwkRouteTableRemoveNextHop
                0x00000000        0x0 ../BitCloud_ZIGBIT_1_7_0/BitCloud/Components/../lib\libBc_All_ZigBit_Atmega1281_Rf230_8Mhz_Gcc.a(nwkRouteTable.o)
 .text          0x00000000        0x0 ../BitCloud_ZIGBIT_1_7_0/BitCloud/Components/../lib\libBc_All_ZigBit_Atmega1281_Rf230_8Mhz_Gcc.a(nwkStartRouter.o)
 .data          0x00000000        0x0 ../BitCloud_ZIGBIT_1_7_0/BitCloud/Components/../lib\libBc_All_ZigBit_Atmega1281_Rf230_8Mhz_Gcc.a(nwkStartRouter.o)
 .bss           0x00000000        0x0 ../BitCloud_ZIGBIT_1_7_0/BitCloud/Components/../lib\libBc_All_ZigBit_Atmega1281_Rf230_8Mhz_Gcc.a(nwkStartRouter.o)
 .text.nwkRealignmentIsAllowed
                0x00000000        0x0 ../BitCloud_ZIGBIT_1_7_0/BitCloud/Components/../lib\libBc_All_ZigBit_Atmega1281_Rf230_8Mhz_Gcc.a(nwkStartRouter.o)
 .text          0x00000000        0x0 ../BitCloud_ZIGBIT_1_7_0/BitCloud/Components/../lib\libBc_All_ZigBit_Atmega1281_Rf230_8Mhz_Gcc.a(nwkStatusInd.o)
 .data          0x00000000        0x0 ../BitCloud_ZIGBIT_1_7_0/BitCloud/Components/../lib\libBc_All_ZigBit_Atmega1281_Rf230_8Mhz_Gcc.a(nwkStatusInd.o)
 .bss           0x00000000        0x0 ../BitCloud_ZIGBIT_1_7_0/BitCloud/Components/../lib\libBc_All_ZigBit_Atmega1281_Rf230_8Mhz_Gcc.a(nwkStatusInd.o)
 .text          0x00000000        0x0 ../BitCloud_ZIGBIT_1_7_0/BitCloud/Components/../lib\libBc_All_ZigBit_Atmega1281_Rf230_8Mhz_Gcc.a(nwkStatusReq.o)
 .data          0x00000000        0x0 ../BitCloud_ZIGBIT_1_7_0/BitCloud/Components/../lib\libBc_All_ZigBit_Atmega1281_Rf230_8Mhz_Gcc.a(nwkStatusReq.o)
 .bss           0x00000000        0x0 ../BitCloud_ZIGBIT_1_7_0/BitCloud/Components/../lib\libBc_All_ZigBit_Atmega1281_Rf230_8Mhz_Gcc.a(nwkStatusReq.o)
 .text          0x00000000        0x0 ../BitCloud_ZIGBIT_1_7_0/BitCloud/Components/../lib\libBc_All_ZigBit_Atmega1281_Rf230_8Mhz_Gcc.a(nwkSync.o)
 .data          0x00000000        0x0 ../BitCloud_ZIGBIT_1_7_0/BitCloud/Components/../lib\libBc_All_ZigBit_Atmega1281_Rf230_8Mhz_Gcc.a(nwkSync.o)
 .bss           0x00000000        0x0 ../BitCloud_ZIGBIT_1_7_0/BitCloud/Components/../lib\libBc_All_ZigBit_Atmega1281_Rf230_8Mhz_Gcc.a(nwkSync.o)
 .text          0x00000000        0x0 ../BitCloud_ZIGBIT_1_7_0/BitCloud/Components/../lib\libBc_All_ZigBit_Atmega1281_Rf230_8Mhz_Gcc.a(nwkTaskManager.o)
 .text.defaultTaskHandler
                0x00000000        0x0 ../BitCloud_ZIGBIT_1_7_0/BitCloud/Components/../lib\libBc_All_ZigBit_Atmega1281_Rf230_8Mhz_Gcc.a(nwkTaskManager.o)
 .text          0x00000000        0x0 ../BitCloud_ZIGBIT_1_7_0/BitCloud/Components/../lib\libBc_All_ZigBit_Atmega1281_Rf230_8Mhz_Gcc.a(nwkTx.o)
 .data          0x00000000        0x0 ../BitCloud_ZIGBIT_1_7_0/BitCloud/Components/../lib\libBc_All_ZigBit_Atmega1281_Rf230_8Mhz_Gcc.a(nwkTx.o)
 .bss           0x00000000        0x0 ../BitCloud_ZIGBIT_1_7_0/BitCloud/Components/../lib\libBc_All_ZigBit_Atmega1281_Rf230_8Mhz_Gcc.a(nwkTx.o)
 .text          0x00000000        0x0 ../BitCloud_ZIGBIT_1_7_0/BitCloud/Components/../lib\libBc_All_ZigBit_Atmega1281_Rf230_8Mhz_Gcc.a(phyInit.o)
 .data          0x00000000        0x0 ../BitCloud_ZIGBIT_1_7_0/BitCloud/Components/../lib\libBc_All_ZigBit_Atmega1281_Rf230_8Mhz_Gcc.a(phyInit.o)
 .bss           0x00000000        0x0 ../BitCloud_ZIGBIT_1_7_0/BitCloud/Components/../lib\libBc_All_ZigBit_Atmega1281_Rf230_8Mhz_Gcc.a(phyInit.o)
 .text          0x00000000        0x0 ../BitCloud_ZIGBIT_1_7_0/BitCloud/Components/../lib\libBc_All_ZigBit_Atmega1281_Rf230_8Mhz_Gcc.a(phyRfSpiProto.o)
 .data          0x00000000        0x0 ../BitCloud_ZIGBIT_1_7_0/BitCloud/Components/../lib\libBc_All_ZigBit_Atmega1281_Rf230_8Mhz_Gcc.a(phyRfSpiProto.o)
 .bss           0x00000000        0x0 ../BitCloud_ZIGBIT_1_7_0/BitCloud/Components/../lib\libBc_All_ZigBit_Atmega1281_Rf230_8Mhz_Gcc.a(phyRfSpiProto.o)
 .text.phyStartReadFrame
                0x00000000        0x0 ../BitCloud_ZIGBIT_1_7_0/BitCloud/Components/../lib\libBc_All_ZigBit_Atmega1281_Rf230_8Mhz_Gcc.a(phyRfSpiProto.o)
 .text          0x00000000        0x0 ../BitCloud_ZIGBIT_1_7_0/BitCloud/Components/../lib\libBc_All_ZigBit_Atmega1281_Rf230_8Mhz_Gcc.a(queue.o)
 .data          0x00000000        0x0 ../BitCloud_ZIGBIT_1_7_0/BitCloud/Components/../lib\libBc_All_ZigBit_Atmega1281_Rf230_8Mhz_Gcc.a(queue.o)
 .bss           0x00000000        0x0 ../BitCloud_ZIGBIT_1_7_0/BitCloud/Components/../lib\libBc_All_ZigBit_Atmega1281_Rf230_8Mhz_Gcc.a(queue.o)
 .text          0x00000000        0x0 ../BitCloud_ZIGBIT_1_7_0/BitCloud/Components/../lib\libBc_All_ZigBit_Atmega1281_Rf230_8Mhz_Gcc.a(taskManager.o)
 .text          0x00000000        0x0 ../BitCloud_ZIGBIT_1_7_0/BitCloud/Components/../lib\libBc_All_ZigBit_Atmega1281_Rf230_8Mhz_Gcc.a(zdoNwkManager.o)
 .data          0x00000000        0x0 ../BitCloud_ZIGBIT_1_7_0/BitCloud/Components/../lib\libBc_All_ZigBit_Atmega1281_Rf230_8Mhz_Gcc.a(zdoNwkManager.o)
 .bss           0x00000000        0x0 ../BitCloud_ZIGBIT_1_7_0/BitCloud/Components/../lib\libBc_All_ZigBit_Atmega1281_Rf230_8Mhz_Gcc.a(zdoNwkManager.o)
 .text.setTxPowerConf
                0x00000000        0x0 ../BitCloud_ZIGBIT_1_7_0/BitCloud/Components/../lib\libBc_All_ZigBit_Atmega1281_Rf230_8Mhz_Gcc.a(zdoNwkManager.o)
 .text.ZDO_GetNeibAmount
                0x00000000        0x0 ../BitCloud_ZIGBIT_1_7_0/BitCloud/Components/../lib\libBc_All_ZigBit_Atmega1281_Rf230_8Mhz_Gcc.a(zdoNwkManager.o)
 .text.ZDO_GetChildrenAddr
                0x00000000        0x0 ../BitCloud_ZIGBIT_1_7_0/BitCloud/Components/../lib\libBc_All_ZigBit_Atmega1281_Rf230_8Mhz_Gcc.a(zdoNwkManager.o)
 .text.ZDO_GetParentAddr
                0x00000000        0x0 ../BitCloud_ZIGBIT_1_7_0/BitCloud/Components/../lib\libBc_All_ZigBit_Atmega1281_Rf230_8Mhz_Gcc.a(zdoNwkManager.o)
 .text.ZDO_GetNeibTable
                0x00000000        0x0 ../BitCloud_ZIGBIT_1_7_0/BitCloud/Components/../lib\libBc_All_ZigBit_Atmega1281_Rf230_8Mhz_Gcc.a(zdoNwkManager.o)
 .text.ZDO_SetTxPowerReq
                0x00000000        0x0 ../BitCloud_ZIGBIT_1_7_0/BitCloud/Components/../lib\libBc_All_ZigBit_Atmega1281_Rf230_8Mhz_Gcc.a(zdoNwkManager.o)
 .text.ZDO_GetLqiRssi
                0x00000000        0x0 ../BitCloud_ZIGBIT_1_7_0/BitCloud/Components/../lib\libBc_All_ZigBit_Atmega1281_Rf230_8Mhz_Gcc.a(zdoNwkManager.o)
 .text          0x00000000        0x0 ../BitCloud_ZIGBIT_1_7_0/BitCloud/Components/../lib\libBc_All_ZigBit_Atmega1281_Rf230_8Mhz_Gcc.a(zdoStateMachines.o)
 .data          0x00000000        0x0 ../BitCloud_ZIGBIT_1_7_0/BitCloud/Components/../lib\libBc_All_ZigBit_Atmega1281_Rf230_8Mhz_Gcc.a(zdoStateMachines.o)
 .bss           0x00000000        0x0 ../BitCloud_ZIGBIT_1_7_0/BitCloud/Components/../lib\libBc_All_ZigBit_Atmega1281_Rf230_8Mhz_Gcc.a(zdoStateMachines.o)
 .text.ZDO_GetNwkStatus
                0x00000000        0x0 ../BitCloud_ZIGBIT_1_7_0/BitCloud/Components/../lib\libBc_All_ZigBit_Atmega1281_Rf230_8Mhz_Gcc.a(zdoStateMachines.o)
 .text.ZDO_ResetNetworkReq
                0x00000000        0x0 ../BitCloud_ZIGBIT_1_7_0/BitCloud/Components/../lib\libBc_All_ZigBit_Atmega1281_Rf230_8Mhz_Gcc.a(zdoStateMachines.o)
 .text          0x00000000        0x0 ../BitCloud_ZIGBIT_1_7_0/BitCloud/Components/../lib\libBc_All_ZigBit_Atmega1281_Rf230_8Mhz_Gcc.a(zdoTaskManager.o)
 .bss           0x00000000        0x0 ../BitCloud_ZIGBIT_1_7_0/BitCloud/Components/../lib\libBc_All_ZigBit_Atmega1281_Rf230_8Mhz_Gcc.a(zdoTaskManager.o)
 .text          0x00000000        0x0 ../BitCloud_ZIGBIT_1_7_0/BitCloud/Components/../lib\libBc_All_ZigBit_Atmega1281_Rf230_8Mhz_Gcc.a(zdoZdpFrameProcessor.o)
 .data          0x00000000        0x0 ../BitCloud_ZIGBIT_1_7_0/BitCloud/Components/../lib\libBc_All_ZigBit_Atmega1281_Rf230_8Mhz_Gcc.a(zdoZdpFrameProcessor.o)
 .bss           0x00000000        0x0 ../BitCloud_ZIGBIT_1_7_0/BitCloud/Components/../lib\libBc_All_ZigBit_Atmega1281_Rf230_8Mhz_Gcc.a(zdoZdpFrameProcessor.o)
 .text          0x00000000        0x0 ../BitCloud_ZIGBIT_1_7_0/BitCloud/Components/../lib\libBc_All_ZigBit_Atmega1281_Rf230_8Mhz_Gcc.a(zdoZdpManager.o)
 .data          0x00000000        0x0 ../BitCloud_ZIGBIT_1_7_0/BitCloud/Components/../lib\libBc_All_ZigBit_Atmega1281_Rf230_8Mhz_Gcc.a(zdoZdpManager.o)
 .bss           0x00000000        0x0 ../BitCloud_ZIGBIT_1_7_0/BitCloud/Components/../lib\libBc_All_ZigBit_Atmega1281_Rf230_8Mhz_Gcc.a(zdoZdpManager.o)
 .text          0x00000000        0x0 ../BitCloud_ZIGBIT_1_7_0/BitCloud/Components/../lib\libBc_All_ZigBit_Atmega1281_Rf230_8Mhz_Gcc.a(zib.o)
 .data          0x00000000        0x0 ../BitCloud_ZIGBIT_1_7_0/BitCloud/Components/../lib\libBc_All_ZigBit_Atmega1281_Rf230_8Mhz_Gcc.a(zib.o)
 .bss           0x00000000        0x0 ../BitCloud_ZIGBIT_1_7_0/BitCloud/Components/../lib\libBc_All_ZigBit_Atmega1281_Rf230_8Mhz_Gcc.a(zib.o)
 .text.ZDO_SetDeviceType
                0x00000000        0x0 ../BitCloud_ZIGBIT_1_7_0/BitCloud/Components/../lib\libBc_All_ZigBit_Atmega1281_Rf230_8Mhz_Gcc.a(zib.o)
 .text          0x00000000        0x0 ../BitCloud_ZIGBIT_1_7_0/BitCloud/Components/../lib\libBc_All_ZigBit_Atmega1281_Rf230_8Mhz_Gcc.a(apsAibManager.o)
 .data          0x00000000        0x0 ../BitCloud_ZIGBIT_1_7_0/BitCloud/Components/../lib\libBc_All_ZigBit_Atmega1281_Rf230_8Mhz_Gcc.a(apsAibManager.o)
 .bss           0x00000000        0x0 ../BitCloud_ZIGBIT_1_7_0/BitCloud/Components/../lib\libBc_All_ZigBit_Atmega1281_Rf230_8Mhz_Gcc.a(apsAibManager.o)
 .text.apsSetAibAttribute
                0x00000000        0x0 ../BitCloud_ZIGBIT_1_7_0/BitCloud/Components/../lib\libBc_All_ZigBit_Atmega1281_Rf230_8Mhz_Gcc.a(apsAibManager.o)
 .text.APS_SetReq
                0x00000000        0x0 ../BitCloud_ZIGBIT_1_7_0/BitCloud/Components/../lib\libBc_All_ZigBit_Atmega1281_Rf230_8Mhz_Gcc.a(apsAibManager.o)
 .text.apsGetAibAttribute
                0x00000000        0x0 ../BitCloud_ZIGBIT_1_7_0/BitCloud/Components/../lib\libBc_All_ZigBit_Atmega1281_Rf230_8Mhz_Gcc.a(apsAibManager.o)
 .progmem.gcc_sw_table
                0x00000000        0x0 ../BitCloud_ZIGBIT_1_7_0/BitCloud/Components/../lib\libBc_All_ZigBit_Atmega1281_Rf230_8Mhz_Gcc.a(apsAibManager.o)
 .text.APS_GetReq
                0x00000000        0x0 ../BitCloud_ZIGBIT_1_7_0/BitCloud/Components/../lib\libBc_All_ZigBit_Atmega1281_Rf230_8Mhz_Gcc.a(apsAibManager.o)
 .text          0x00000000        0x0 ../BitCloud_ZIGBIT_1_7_0/BitCloud/Components/../lib\libBc_All_ZigBit_Atmega1281_Rf230_8Mhz_Gcc.a(apsBindManager.o)
 .data          0x00000000        0x0 ../BitCloud_ZIGBIT_1_7_0/BitCloud/Components/../lib\libBc_All_ZigBit_Atmega1281_Rf230_8Mhz_Gcc.a(apsBindManager.o)
 .text          0x00000000        0x0 ../BitCloud_ZIGBIT_1_7_0/BitCloud/Components/../lib\libBc_All_ZigBit_Atmega1281_Rf230_8Mhz_Gcc.a(machwdManager.o)
 .text          0x00000000        0x0 ../BitCloud_ZIGBIT_1_7_0/BitCloud/Components/../lib\libBc_All_ZigBit_Atmega1281_Rf230_8Mhz_Gcc.a(machwdResetHandler.o)
 .data          0x00000000        0x0 ../BitCloud_ZIGBIT_1_7_0/BitCloud/Components/../lib\libBc_All_ZigBit_Atmega1281_Rf230_8Mhz_Gcc.a(machwdResetHandler.o)
 .bss           0x00000000        0x0 ../BitCloud_ZIGBIT_1_7_0/BitCloud/Components/../lib\libBc_All_ZigBit_Atmega1281_Rf230_8Mhz_Gcc.a(machwdResetHandler.o)
 .text          0x00000000        0x0 ../BitCloud_ZIGBIT_1_7_0/BitCloud/Components/../lib\libBc_All_ZigBit_Atmega1281_Rf230_8Mhz_Gcc.a(machwdRndHandler.o)
 .data          0x00000000        0x0 ../BitCloud_ZIGBIT_1_7_0/BitCloud/Components/../lib\libBc_All_ZigBit_Atmega1281_Rf230_8Mhz_Gcc.a(machwdRndHandler.o)
 .bss           0x00000000        0x0 ../BitCloud_ZIGBIT_1_7_0/BitCloud/Components/../lib\libBc_All_ZigBit_Atmega1281_Rf230_8Mhz_Gcc.a(machwdRndHandler.o)
 .text          0x00000000        0x0 ../BitCloud_ZIGBIT_1_7_0/BitCloud/Components/../lib\libBc_All_ZigBit_Atmega1281_Rf230_8Mhz_Gcc.a(machwdRxBuffer.o)
 .data          0x00000000        0x0 ../BitCloud_ZIGBIT_1_7_0/BitCloud/Components/../lib\libBc_All_ZigBit_Atmega1281_Rf230_8Mhz_Gcc.a(machwdRxBuffer.o)
 .bss           0x00000000        0x0 ../BitCloud_ZIGBIT_1_7_0/BitCloud/Components/../lib\libBc_All_ZigBit_Atmega1281_Rf230_8Mhz_Gcc.a(machwdRxBuffer.o)
 .text          0x00000000        0x0 ../BitCloud_ZIGBIT_1_7_0/BitCloud/Components/../lib\libBc_All_ZigBit_Atmega1281_Rf230_8Mhz_Gcc.a(machwdRxFrameHandler.o)
 .data          0x00000000        0x0 ../BitCloud_ZIGBIT_1_7_0/BitCloud/Components/../lib\libBc_All_ZigBit_Atmega1281_Rf230_8Mhz_Gcc.a(machwdRxFrameHandler.o)
 .bss           0x00000000        0x0 ../BitCloud_ZIGBIT_1_7_0/BitCloud/Components/../lib\libBc_All_ZigBit_Atmega1281_Rf230_8Mhz_Gcc.a(machwdRxFrameHandler.o)
 .text          0x00000000        0x0 ../BitCloud_ZIGBIT_1_7_0/BitCloud/Components/../lib\libBc_All_ZigBit_Atmega1281_Rf230_8Mhz_Gcc.a(machwdSetHandler.o)
 .data          0x00000000        0x0 ../BitCloud_ZIGBIT_1_7_0/BitCloud/Components/../lib\libBc_All_ZigBit_Atmega1281_Rf230_8Mhz_Gcc.a(machwdSetHandler.o)
 .text          0x00000000        0x0 ../BitCloud_ZIGBIT_1_7_0/BitCloud/Components/../lib\libBc_All_ZigBit_Atmega1281_Rf230_8Mhz_Gcc.a(machwdTrxCtrl.o)
 .data          0x00000000        0x0 ../BitCloud_ZIGBIT_1_7_0/BitCloud/Components/../lib\libBc_All_ZigBit_Atmega1281_Rf230_8Mhz_Gcc.a(machwdTrxCtrl.o)
 .bss           0x00000000        0x0 ../BitCloud_ZIGBIT_1_7_0/BitCloud/Components/../lib\libBc_All_ZigBit_Atmega1281_Rf230_8Mhz_Gcc.a(machwdTrxCtrl.o)
 .text          0x00000000        0x0 ../BitCloud_ZIGBIT_1_7_0/BitCloud/Components/../lib\libBc_All_ZigBit_Atmega1281_Rf230_8Mhz_Gcc.a(machwdTrxHandler.o)
 .data          0x00000000        0x0 ../BitCloud_ZIGBIT_1_7_0/BitCloud/Components/../lib\libBc_All_ZigBit_Atmega1281_Rf230_8Mhz_Gcc.a(machwdTrxHandler.o)
 .text          0x00000000        0x0 ../BitCloud_ZIGBIT_1_7_0/BitCloud/Components/../lib\libBc_All_ZigBit_Atmega1281_Rf230_8Mhz_Gcc.a(machwdTxFrameHandler.o)
 .data          0x00000000        0x0 ../BitCloud_ZIGBIT_1_7_0/BitCloud/Components/../lib\libBc_All_ZigBit_Atmega1281_Rf230_8Mhz_Gcc.a(machwdTxFrameHandler.o)
 .text          0x00000000        0x0 ../BitCloud_ZIGBIT_1_7_0/BitCloud/Components/../lib\libBc_All_ZigBit_Atmega1281_Rf230_8Mhz_Gcc.a(machwiManager.o)
 .data          0x00000000        0x0 ../BitCloud_ZIGBIT_1_7_0/BitCloud/Components/../lib\libBc_All_ZigBit_Atmega1281_Rf230_8Mhz_Gcc.a(machwiManager.o)
 .bss           0x00000000        0x0 ../BitCloud_ZIGBIT_1_7_0/BitCloud/Components/../lib\libBc_All_ZigBit_Atmega1281_Rf230_8Mhz_Gcc.a(machwiManager.o)
 .text.MAC_PurgeReq
                0x00000000        0x0 ../BitCloud_ZIGBIT_1_7_0/BitCloud/Components/../lib\libBc_All_ZigBit_Atmega1281_Rf230_8Mhz_Gcc.a(machwiManager.o)
 .text.MAC_OrphanResp
                0x00000000        0x0 ../BitCloud_ZIGBIT_1_7_0/BitCloud/Components/../lib\libBc_All_ZigBit_Atmega1281_Rf230_8Mhz_Gcc.a(machwiManager.o)
 .text          0x00000000        0x0 ../BitCloud_ZIGBIT_1_7_0/BitCloud/Components/../lib\libBc_All_ZigBit_Atmega1281_Rf230_8Mhz_Gcc.a(machwiOrphanHandler.o)
 .data          0x00000000        0x0 ../BitCloud_ZIGBIT_1_7_0/BitCloud/Components/../lib\libBc_All_ZigBit_Atmega1281_Rf230_8Mhz_Gcc.a(machwiOrphanHandler.o)
 .bss           0x00000000        0x0 ../BitCloud_ZIGBIT_1_7_0/BitCloud/Components/../lib\libBc_All_ZigBit_Atmega1281_Rf230_8Mhz_Gcc.a(machwiOrphanHandler.o)
 .text          0x00000000        0x0 ../BitCloud_ZIGBIT_1_7_0/BitCloud/Components/../lib\libBc_All_ZigBit_Atmega1281_Rf230_8Mhz_Gcc.a(machwiPanServer.o)
 .data          0x00000000        0x0 ../BitCloud_ZIGBIT_1_7_0/BitCloud/Components/../lib\libBc_All_ZigBit_Atmega1281_Rf230_8Mhz_Gcc.a(machwiPanServer.o)
 .bss           0x00000000        0x0 ../BitCloud_ZIGBIT_1_7_0/BitCloud/Components/../lib\libBc_All_ZigBit_Atmega1281_Rf230_8Mhz_Gcc.a(machwiPanServer.o)
 .text          0x00000000        0x0 ../BitCloud_ZIGBIT_1_7_0/BitCloud/Components/../lib\libBc_All_ZigBit_Atmega1281_Rf230_8Mhz_Gcc.a(machwiPollHandler.o)
 .data          0x00000000        0x0 ../BitCloud_ZIGBIT_1_7_0/BitCloud/Components/../lib\libBc_All_ZigBit_Atmega1281_Rf230_8Mhz_Gcc.a(machwiPollHandler.o)
 .bss           0x00000000        0x0 ../BitCloud_ZIGBIT_1_7_0/BitCloud/Components/../lib\libBc_All_ZigBit_Atmega1281_Rf230_8Mhz_Gcc.a(machwiPollHandler.o)
 .text          0x00000000        0x0 ../BitCloud_ZIGBIT_1_7_0/BitCloud/Components/../lib\libBc_All_ZigBit_Atmega1281_Rf230_8Mhz_Gcc.a(machwiPurgeHandler.o)
 .data          0x00000000        0x0 ../BitCloud_ZIGBIT_1_7_0/BitCloud/Components/../lib\libBc_All_ZigBit_Atmega1281_Rf230_8Mhz_Gcc.a(machwiPurgeHandler.o)
 .bss           0x00000000        0x0 ../BitCloud_ZIGBIT_1_7_0/BitCloud/Components/../lib\libBc_All_ZigBit_Atmega1281_Rf230_8Mhz_Gcc.a(machwiPurgeHandler.o)
 .text          0x00000000        0x0 ../BitCloud_ZIGBIT_1_7_0/BitCloud/Components/../lib\libBc_All_ZigBit_Atmega1281_Rf230_8Mhz_Gcc.a(machwiResetHandler.o)
 .data          0x00000000        0x0 ../BitCloud_ZIGBIT_1_7_0/BitCloud/Components/../lib\libBc_All_ZigBit_Atmega1281_Rf230_8Mhz_Gcc.a(machwiResetHandler.o)
 .bss           0x00000000        0x0 ../BitCloud_ZIGBIT_1_7_0/BitCloud/Components/../lib\libBc_All_ZigBit_Atmega1281_Rf230_8Mhz_Gcc.a(machwiResetHandler.o)
 .text          0x00000000        0x0 ../BitCloud_ZIGBIT_1_7_0/BitCloud/Components/../lib\libBc_All_ZigBit_Atmega1281_Rf230_8Mhz_Gcc.a(machwiRxEnableHandler.o)
 .data          0x00000000        0x0 ../BitCloud_ZIGBIT_1_7_0/BitCloud/Components/../lib\libBc_All_ZigBit_Atmega1281_Rf230_8Mhz_Gcc.a(machwiRxEnableHandler.o)
 .bss           0x00000000        0x0 ../BitCloud_ZIGBIT_1_7_0/BitCloud/Components/../lib\libBc_All_ZigBit_Atmega1281_Rf230_8Mhz_Gcc.a(machwiRxEnableHandler.o)
 .text          0x00000000        0x0 ../BitCloud_ZIGBIT_1_7_0/BitCloud/Components/../lib\libBc_All_ZigBit_Atmega1281_Rf230_8Mhz_Gcc.a(machwiScanHandler.o)
 .data          0x00000000        0x0 ../BitCloud_ZIGBIT_1_7_0/BitCloud/Components/../lib\libBc_All_ZigBit_Atmega1281_Rf230_8Mhz_Gcc.a(machwiScanHandler.o)
 .text          0x00000000        0x0 ../BitCloud_ZIGBIT_1_7_0/BitCloud/Components/../lib\libBc_All_ZigBit_Atmega1281_Rf230_8Mhz_Gcc.a(machwiSetGetHandler.o)
 .data          0x00000000        0x0 ../BitCloud_ZIGBIT_1_7_0/BitCloud/Components/../lib\libBc_All_ZigBit_Atmega1281_Rf230_8Mhz_Gcc.a(machwiSetGetHandler.o)
 .bss           0x00000000        0x0 ../BitCloud_ZIGBIT_1_7_0/BitCloud/Components/../lib\libBc_All_ZigBit_Atmega1281_Rf230_8Mhz_Gcc.a(machwiSetGetHandler.o)
 .text          0x00000000        0x0 ../BitCloud_ZIGBIT_1_7_0/BitCloud/Components/../lib\libBc_All_ZigBit_Atmega1281_Rf230_8Mhz_Gcc.a(machwiStartHandler.o)
 .data          0x00000000        0x0 ../BitCloud_ZIGBIT_1_7_0/BitCloud/Components/../lib\libBc_All_ZigBit_Atmega1281_Rf230_8Mhz_Gcc.a(machwiStartHandler.o)
 .bss           0x00000000        0x0 ../BitCloud_ZIGBIT_1_7_0/BitCloud/Components/../lib\libBc_All_ZigBit_Atmega1281_Rf230_8Mhz_Gcc.a(machwiStartHandler.o)
 .text          0x00000000        0x0 ../BitCloud_ZIGBIT_1_7_0/BitCloud/Components/../lib\libBc_All_ZigBit_Atmega1281_Rf230_8Mhz_Gcc.a(machwiSwitchRxCtrl.o)
 .data          0x00000000        0x0 ../BitCloud_ZIGBIT_1_7_0/BitCloud/Components/../lib\libBc_All_ZigBit_Atmega1281_Rf230_8Mhz_Gcc.a(machwiSwitchRxCtrl.o)
 .bss           0x00000000        0x0 ../BitCloud_ZIGBIT_1_7_0/BitCloud/Components/../lib\libBc_All_ZigBit_Atmega1281_Rf230_8Mhz_Gcc.a(machwiSwitchRxCtrl.o)
 .text          0x00000000        0x0 ../BitCloud_ZIGBIT_1_7_0/BitCloud/Components/../lib\libBc_All_ZigBit_Atmega1281_Rf230_8Mhz_Gcc.a(machwiTransactionHandler.o)
 .data          0x00000000        0x0 ../BitCloud_ZIGBIT_1_7_0/BitCloud/Components/../lib\libBc_All_ZigBit_Atmega1281_Rf230_8Mhz_Gcc.a(machwiTransactionHandler.o)
 .bss           0x00000000        0x0 ../BitCloud_ZIGBIT_1_7_0/BitCloud/Components/../lib\libBc_All_ZigBit_Atmega1281_Rf230_8Mhz_Gcc.a(machwiTransactionHandler.o)
 .text          0x00000000        0x0 ../BitCloud_ZIGBIT_1_7_0/BitCloud/Components/../lib\libBc_All_ZigBit_Atmega1281_Rf230_8Mhz_Gcc.a(machwiTransactionQueue.o)
 .data          0x00000000        0x0 ../BitCloud_ZIGBIT_1_7_0/BitCloud/Components/../lib\libBc_All_ZigBit_Atmega1281_Rf230_8Mhz_Gcc.a(machwiTransactionQueue.o)
 .bss           0x00000000        0x0 ../BitCloud_ZIGBIT_1_7_0/BitCloud/Components/../lib\libBc_All_ZigBit_Atmega1281_Rf230_8Mhz_Gcc.a(machwiTransactionQueue.o)
 .text          0x00000000        0x0 ../BitCloud_ZIGBIT_1_7_0/BitCloud/Components/../lib\libBc_All_ZigBit_Atmega1281_Rf230_8Mhz_Gcc.a(nwkAddrConflict.o)
 .data          0x00000000        0x0 ../BitCloud_ZIGBIT_1_7_0/BitCloud/Components/../lib\libBc_All_ZigBit_Atmega1281_Rf230_8Mhz_Gcc.a(nwkAddrConflict.o)
 .bss           0x00000000        0x0 ../BitCloud_ZIGBIT_1_7_0/BitCloud/Components/../lib\libBc_All_ZigBit_Atmega1281_Rf230_8Mhz_Gcc.a(nwkAddrConflict.o)
 .text          0x00000000        0x0 ../BitCloud_ZIGBIT_1_7_0/BitCloud/Components/../lib\libBc_All_ZigBit_Atmega1281_Rf230_8Mhz_Gcc.a(nwkAge.o)
 .data          0x00000000        0x0 ../BitCloud_ZIGBIT_1_7_0/BitCloud/Components/../lib\libBc_All_ZigBit_Atmega1281_Rf230_8Mhz_Gcc.a(nwkAge.o)
 .bss           0x00000000        0x0 ../BitCloud_ZIGBIT_1_7_0/BitCloud/Components/../lib\libBc_All_ZigBit_Atmega1281_Rf230_8Mhz_Gcc.a(nwkAge.o)
 .text          0x00000000        0x0 ../BitCloud_ZIGBIT_1_7_0/BitCloud/Components/../lib\libBc_All_ZigBit_Atmega1281_Rf230_8Mhz_Gcc.a(nwkBTT.o)
 .data          0x00000000        0x0 ../BitCloud_ZIGBIT_1_7_0/BitCloud/Components/../lib\libBc_All_ZigBit_Atmega1281_Rf230_8Mhz_Gcc.a(nwkBTT.o)
 .bss           0x00000000        0x0 ../BitCloud_ZIGBIT_1_7_0/BitCloud/Components/../lib\libBc_All_ZigBit_Atmega1281_Rf230_8Mhz_Gcc.a(nwkBTT.o)
 .text          0x00000000        0x0 ../BitCloud_ZIGBIT_1_7_0/BitCloud/Components/../lib\libBc_All_ZigBit_Atmega1281_Rf230_8Mhz_Gcc.a(nwkCommands.o)
 .data          0x00000000        0x0 ../BitCloud_ZIGBIT_1_7_0/BitCloud/Components/../lib\libBc_All_ZigBit_Atmega1281_Rf230_8Mhz_Gcc.a(nwkCommands.o)
 .bss           0x00000000        0x0 ../BitCloud_ZIGBIT_1_7_0/BitCloud/Components/../lib\libBc_All_ZigBit_Atmega1281_Rf230_8Mhz_Gcc.a(nwkCommands.o)
 .text          0x00000000        0x0 ../BitCloud_ZIGBIT_1_7_0/BitCloud/Components/../lib\libBc_All_ZigBit_Atmega1281_Rf230_8Mhz_Gcc.a(nwkDiscovery.o)
 .data          0x00000000        0x0 ../BitCloud_ZIGBIT_1_7_0/BitCloud/Components/../lib\libBc_All_ZigBit_Atmega1281_Rf230_8Mhz_Gcc.a(nwkDiscovery.o)
 .bss           0x00000000        0x0 ../BitCloud_ZIGBIT_1_7_0/BitCloud/Components/../lib\libBc_All_ZigBit_Atmega1281_Rf230_8Mhz_Gcc.a(nwkDiscovery.o)
 .text          0x00000000        0x0 ../BitCloud_ZIGBIT_1_7_0/BitCloud/Components/../lib\libBc_All_ZigBit_Atmega1281_Rf230_8Mhz_Gcc.a(nwkEDScan.o)
 .data          0x00000000        0x0 ../BitCloud_ZIGBIT_1_7_0/BitCloud/Components/../lib\libBc_All_ZigBit_Atmega1281_Rf230_8Mhz_Gcc.a(nwkEDScan.o)
 .bss           0x00000000        0x0 ../BitCloud_ZIGBIT_1_7_0/BitCloud/Components/../lib\libBc_All_ZigBit_Atmega1281_Rf230_8Mhz_Gcc.a(nwkEDScan.o)
 .text          0x00000000        0x0 ../BitCloud_ZIGBIT_1_7_0/BitCloud/Components/../lib\libBc_All_ZigBit_Atmega1281_Rf230_8Mhz_Gcc.a(nwkFormation.o)
 .data          0x00000000        0x0 ../BitCloud_ZIGBIT_1_7_0/BitCloud/Components/../lib\libBc_All_ZigBit_Atmega1281_Rf230_8Mhz_Gcc.a(nwkFormation.o)
 .bss           0x00000000        0x0 ../BitCloud_ZIGBIT_1_7_0/BitCloud/Components/../lib\libBc_All_ZigBit_Atmega1281_Rf230_8Mhz_Gcc.a(nwkFormation.o)
 .text          0x00000000        0x0 ../BitCloud_ZIGBIT_1_7_0/BitCloud/Components/../lib\libBc_All_ZigBit_Atmega1281_Rf230_8Mhz_Gcc.a(nwkIB.o)
 .data          0x00000000        0x0 ../BitCloud_ZIGBIT_1_7_0/BitCloud/Components/../lib\libBc_All_ZigBit_Atmega1281_Rf230_8Mhz_Gcc.a(nwkIB.o)
 .bss           0x00000000        0x0 ../BitCloud_ZIGBIT_1_7_0/BitCloud/Components/../lib\libBc_All_ZigBit_Atmega1281_Rf230_8Mhz_Gcc.a(nwkIB.o)
 .text          0x00000000        0x0 ../BitCloud_ZIGBIT_1_7_0/BitCloud/Components/../lib\libBc_All_ZigBit_Atmega1281_Rf230_8Mhz_Gcc.a(nwkJoinInd.o)
 .data          0x00000000        0x0 ../BitCloud_ZIGBIT_1_7_0/BitCloud/Components/../lib\libBc_All_ZigBit_Atmega1281_Rf230_8Mhz_Gcc.a(nwkJoinInd.o)
 .bss           0x00000000        0x0 ../BitCloud_ZIGBIT_1_7_0/BitCloud/Components/../lib\libBc_All_ZigBit_Atmega1281_Rf230_8Mhz_Gcc.a(nwkJoinInd.o)
 .text          0x00000000        0x0 ../BitCloud_ZIGBIT_1_7_0/BitCloud/Components/../lib\libBc_All_ZigBit_Atmega1281_Rf230_8Mhz_Gcc.a(nwkJoinReq.o)
 .data          0x00000000        0x0 ../BitCloud_ZIGBIT_1_7_0/BitCloud/Components/../lib\libBc_All_ZigBit_Atmega1281_Rf230_8Mhz_Gcc.a(nwkJoinReq.o)
 .bss           0x00000000        0x0 ../BitCloud_ZIGBIT_1_7_0/BitCloud/Components/../lib\libBc_All_ZigBit_Atmega1281_Rf230_8Mhz_Gcc.a(nwkJoinReq.o)
 .text          0x00000000        0x0 ../BitCloud_ZIGBIT_1_7_0/BitCloud/Components/../lib\libBc_All_ZigBit_Atmega1281_Rf230_8Mhz_Gcc.a(nwkLeaveInd.o)
 .data          0x00000000        0x0 ../BitCloud_ZIGBIT_1_7_0/BitCloud/Components/../lib\libBc_All_ZigBit_Atmega1281_Rf230_8Mhz_Gcc.a(nwkLeaveInd.o)
 .bss           0x00000000        0x0 ../BitCloud_ZIGBIT_1_7_0/BitCloud/Components/../lib\libBc_All_ZigBit_Atmega1281_Rf230_8Mhz_Gcc.a(nwkLeaveInd.o)
 .text          0x00000000        0x0 ../BitCloud_ZIGBIT_1_7_0/BitCloud/Components/../lib\libBc_All_ZigBit_Atmega1281_Rf230_8Mhz_Gcc.a(nwkLeaveReq.o)
 .data          0x00000000        0x0 ../BitCloud_ZIGBIT_1_7_0/BitCloud/Components/../lib\libBc_All_ZigBit_Atmega1281_Rf230_8Mhz_Gcc.a(nwkLeaveReq.o)
 .bss           0x00000000        0x0 ../BitCloud_ZIGBIT_1_7_0/BitCloud/Components/../lib\libBc_All_ZigBit_Atmega1281_Rf230_8Mhz_Gcc.a(nwkLeaveReq.o)
 .text          0x00000000        0x0 ../BitCloud_ZIGBIT_1_7_0/BitCloud/Components/../lib\libBc_All_ZigBit_Atmega1281_Rf230_8Mhz_Gcc.a(nwkLinkStatus.o)
 .data          0x00000000        0x0 ../BitCloud_ZIGBIT_1_7_0/BitCloud/Components/../lib\libBc_All_ZigBit_Atmega1281_Rf230_8Mhz_Gcc.a(nwkLinkStatus.o)
 .bss           0x00000000        0x0 ../BitCloud_ZIGBIT_1_7_0/BitCloud/Components/../lib\libBc_All_ZigBit_Atmega1281_Rf230_8Mhz_Gcc.a(nwkLinkStatus.o)
 .text          0x00000000        0x0 ../BitCloud_ZIGBIT_1_7_0/BitCloud/Components/../lib\libBc_All_ZigBit_Atmega1281_Rf230_8Mhz_Gcc.a(nwkPacket.o)
 .data          0x00000000        0x0 ../BitCloud_ZIGBIT_1_7_0/BitCloud/Components/../lib\libBc_All_ZigBit_Atmega1281_Rf230_8Mhz_Gcc.a(nwkPacket.o)
 .bss           0x00000000        0x0 ../BitCloud_ZIGBIT_1_7_0/BitCloud/Components/../lib\libBc_All_ZigBit_Atmega1281_Rf230_8Mhz_Gcc.a(nwkPacket.o)
 .text          0x00000000        0x0 ../BitCloud_ZIGBIT_1_7_0/BitCloud/Components/../lib\libBc_All_ZigBit_Atmega1281_Rf230_8Mhz_Gcc.a(nwkPermitJoining.o)
 .data          0x00000000        0x0 ../BitCloud_ZIGBIT_1_7_0/BitCloud/Components/../lib\libBc_All_ZigBit_Atmega1281_Rf230_8Mhz_Gcc.a(nwkPermitJoining.o)
 .bss           0x00000000        0x0 ../BitCloud_ZIGBIT_1_7_0/BitCloud/Components/../lib\libBc_All_ZigBit_Atmega1281_Rf230_8Mhz_Gcc.a(nwkPermitJoining.o)
 .text          0x00000000        0x0 ../BitCloud_ZIGBIT_1_7_0/BitCloud/Components/../lib\libBc_All_ZigBit_Atmega1281_Rf230_8Mhz_Gcc.a(nwkRouting.o)
 .data          0x00000000        0x0 ../BitCloud_ZIGBIT_1_7_0/BitCloud/Components/../lib\libBc_All_ZigBit_Atmega1281_Rf230_8Mhz_Gcc.a(nwkRouting.o)
 .bss           0x00000000        0x0 ../BitCloud_ZIGBIT_1_7_0/BitCloud/Components/../lib\libBc_All_ZigBit_Atmega1281_Rf230_8Mhz_Gcc.a(nwkRouting.o)
 .text.NWK_GetNextHop
                0x00000000        0x0 ../BitCloud_ZIGBIT_1_7_0/BitCloud/Components/../lib\libBc_All_ZigBit_Atmega1281_Rf230_8Mhz_Gcc.a(nwkRouting.o)
 .text          0x00000000        0x0 ../BitCloud_ZIGBIT_1_7_0/BitCloud/Components/../lib\libBc_All_ZigBit_Atmega1281_Rf230_8Mhz_Gcc.a(nwkRx.o)
 .data          0x00000000        0x0 ../BitCloud_ZIGBIT_1_7_0/BitCloud/Components/../lib\libBc_All_ZigBit_Atmega1281_Rf230_8Mhz_Gcc.a(nwkRx.o)
 .bss           0x00000000        0x0 ../BitCloud_ZIGBIT_1_7_0/BitCloud/Components/../lib\libBc_All_ZigBit_Atmega1281_Rf230_8Mhz_Gcc.a(nwkRx.o)
 .text          0x00000000        0x0 ../BitCloud_ZIGBIT_1_7_0/BitCloud/Components/../lib\libBc_All_ZigBit_Atmega1281_Rf230_8Mhz_Gcc.a(nwkSyncLoss.o)
 .data          0x00000000        0x0 ../BitCloud_ZIGBIT_1_7_0/BitCloud/Components/../lib\libBc_All_ZigBit_Atmega1281_Rf230_8Mhz_Gcc.a(nwkSyncLoss.o)
 .bss           0x00000000        0x0 ../BitCloud_ZIGBIT_1_7_0/BitCloud/Components/../lib\libBc_All_ZigBit_Atmega1281_Rf230_8Mhz_Gcc.a(nwkSyncLoss.o)
 .text          0x00000000        0x0 ../BitCloud_ZIGBIT_1_7_0/BitCloud/Components/../lib\libBc_All_ZigBit_Atmega1281_Rf230_8Mhz_Gcc.a(phyReset.o)
 .data          0x00000000        0x0 ../BitCloud_ZIGBIT_1_7_0/BitCloud/Components/../lib\libBc_All_ZigBit_Atmega1281_Rf230_8Mhz_Gcc.a(phyReset.o)
 .bss           0x00000000        0x0 ../BitCloud_ZIGBIT_1_7_0/BitCloud/Components/../lib\libBc_All_ZigBit_Atmega1281_Rf230_8Mhz_Gcc.a(phyReset.o)
 .text          0x00000000        0x0 ../BitCloud_ZIGBIT_1_7_0/BitCloud/Components/../lib\libBc_All_ZigBit_Atmega1281_Rf230_8Mhz_Gcc.a(phyRxFrame.o)
 .bss           0x00000000        0x0 ../BitCloud_ZIGBIT_1_7_0/BitCloud/Components/../lib\libBc_All_ZigBit_Atmega1281_Rf230_8Mhz_Gcc.a(phyRxFrame.o)
 .text          0x00000000        0x0 ../BitCloud_ZIGBIT_1_7_0/BitCloud/Components/../lib\libBc_All_ZigBit_Atmega1281_Rf230_8Mhz_Gcc.a(phySet.o)
 .data          0x00000000        0x0 ../BitCloud_ZIGBIT_1_7_0/BitCloud/Components/../lib\libBc_All_ZigBit_Atmega1281_Rf230_8Mhz_Gcc.a(phySet.o)
 .bss           0x00000000        0x0 ../BitCloud_ZIGBIT_1_7_0/BitCloud/Components/../lib\libBc_All_ZigBit_Atmega1281_Rf230_8Mhz_Gcc.a(phySet.o)
 .text          0x00000000        0x0 ../BitCloud_ZIGBIT_1_7_0/BitCloud/Components/../lib\libBc_All_ZigBit_Atmega1281_Rf230_8Mhz_Gcc.a(phySetTrxState.o)
 .bss           0x00000000        0x0 ../BitCloud_ZIGBIT_1_7_0/BitCloud/Components/../lib\libBc_All_ZigBit_Atmega1281_Rf230_8Mhz_Gcc.a(phySetTrxState.o)
 .text          0x00000000        0x0 ../BitCloud_ZIGBIT_1_7_0/BitCloud/Components/../lib\libBc_All_ZigBit_Atmega1281_Rf230_8Mhz_Gcc.a(phyStateMachine.o)
 .data          0x00000000        0x0 ../BitCloud_ZIGBIT_1_7_0/BitCloud/Components/../lib\libBc_All_ZigBit_Atmega1281_Rf230_8Mhz_Gcc.a(phyStateMachine.o)
 .text          0x00000000        0x0 ../BitCloud_ZIGBIT_1_7_0/BitCloud/Components/../lib\libBc_All_ZigBit_Atmega1281_Rf230_8Mhz_Gcc.a(phyTxFrame.o)
 .data          0x00000000        0x0 ../BitCloud_ZIGBIT_1_7_0/BitCloud/Components/../lib\libBc_All_ZigBit_Atmega1281_Rf230_8Mhz_Gcc.a(phyTxFrame.o)
 .bss           0x00000000        0x0 ../BitCloud_ZIGBIT_1_7_0/BitCloud/Components/../lib\libBc_All_ZigBit_Atmega1281_Rf230_8Mhz_Gcc.a(phyTxFrame.o)
 .text          0x00000000        0x0 ../BitCloud_ZIGBIT_1_7_0/BitCloud/Components/../lib\libBc_All_ZigBit_Atmega1281_Rf230_8Mhz_Gcc.a(zdoBindingManager.o)
 .data          0x00000000        0x0 ../BitCloud_ZIGBIT_1_7_0/BitCloud/Components/../lib\libBc_All_ZigBit_Atmega1281_Rf230_8Mhz_Gcc.a(zdoBindingManager.o)
 .text.ZdoBMReset
                0x00000000        0x0 ../BitCloud_ZIGBIT_1_7_0/BitCloud/Components/../lib\libBc_All_ZigBit_Atmega1281_Rf230_8Mhz_Gcc.a(zdoBindingManager.o)
 .text          0x00000000        0x0 ../BitCloud_ZIGBIT_1_7_0/BitCloud/Components/../lib\libBc_All_ZigBit_Atmega1281_Rf230_8Mhz_Gcc.a(zdoCheckState.o)
 .data          0x00000000        0x0 ../BitCloud_ZIGBIT_1_7_0/BitCloud/Components/../lib\libBc_All_ZigBit_Atmega1281_Rf230_8Mhz_Gcc.a(zdoCheckState.o)
 .bss           0x00000000        0x0 ../BitCloud_ZIGBIT_1_7_0/BitCloud/Components/../lib\libBc_All_ZigBit_Atmega1281_Rf230_8Mhz_Gcc.a(zdoCheckState.o)
 .text          0x00000000        0x0 ../BitCloud_ZIGBIT_1_7_0/BitCloud/Components/../lib\libBc_All_ZigBit_Atmega1281_Rf230_8Mhz_Gcc.a(zdoDiscoveryManager.o)
 .data          0x00000000        0x0 ../BitCloud_ZIGBIT_1_7_0/BitCloud/Components/../lib\libBc_All_ZigBit_Atmega1281_Rf230_8Mhz_Gcc.a(zdoDiscoveryManager.o)
 .bss           0x00000000        0x0 ../BitCloud_ZIGBIT_1_7_0/BitCloud/Components/../lib\libBc_All_ZigBit_Atmega1281_Rf230_8Mhz_Gcc.a(zdoDiscoveryManager.o)
 .text          0x00000000        0x0 ../BitCloud_ZIGBIT_1_7_0/BitCloud/Components/../lib\libBc_All_ZigBit_Atmega1281_Rf230_8Mhz_Gcc.a(zdoMem.o)
 .data          0x00000000        0x0 ../BitCloud_ZIGBIT_1_7_0/BitCloud/Components/../lib\libBc_All_ZigBit_Atmega1281_Rf230_8Mhz_Gcc.a(zdoMem.o)
 .bss           0x00000000        0x0 ../BitCloud_ZIGBIT_1_7_0/BitCloud/Components/../lib\libBc_All_ZigBit_Atmega1281_Rf230_8Mhz_Gcc.a(zdoMem.o)
 .text          0x00000000        0x0 ../BitCloud_ZIGBIT_1_7_0/BitCloud/Components/../lib\libBc_All_ZigBit_Atmega1281_Rf230_8Mhz_Gcc.a(zdoNodeManager.o)
 .data          0x00000000        0x0 ../BitCloud_ZIGBIT_1_7_0/BitCloud/Components/../lib\libBc_All_ZigBit_Atmega1281_Rf230_8Mhz_Gcc.a(zdoNodeManager.o)
 .bss           0x00000000        0x0 ../BitCloud_ZIGBIT_1_7_0/BitCloud/Components/../lib\libBc_All_ZigBit_Atmega1281_Rf230_8Mhz_Gcc.a(zdoNodeManager.o)
 .text          0x00000000        0x0 ../BitCloud_ZIGBIT_1_7_0/BitCloud/Components/../lib\libBc_All_ZigBit_Atmega1281_Rf230_8Mhz_Gcc.a(zdoPowerManager.o)
 .data          0x00000000        0x0 ../BitCloud_ZIGBIT_1_7_0/BitCloud/Components/../lib\libBc_All_ZigBit_Atmega1281_Rf230_8Mhz_Gcc.a(zdoPowerManager.o)
 .bss           0x00000000        0x0 ../BitCloud_ZIGBIT_1_7_0/BitCloud/Components/../lib\libBc_All_ZigBit_Atmega1281_Rf230_8Mhz_Gcc.a(zdoPowerManager.o)
 .text.ZDO_WakeUpReq
                0x00000000        0x0 ../BitCloud_ZIGBIT_1_7_0/BitCloud/Components/../lib\libBc_All_ZigBit_Atmega1281_Rf230_8Mhz_Gcc.a(zdoPowerManager.o)
 .text.ZDO_StartSyncReq
                0x00000000        0x0 ../BitCloud_ZIGBIT_1_7_0/BitCloud/Components/../lib\libBc_All_ZigBit_Atmega1281_Rf230_8Mhz_Gcc.a(zdoPowerManager.o)
 .text.ZDO_StopSyncReq
                0x00000000        0x0 ../BitCloud_ZIGBIT_1_7_0/BitCloud/Components/../lib\libBc_All_ZigBit_Atmega1281_Rf230_8Mhz_Gcc.a(zdoPowerManager.o)
 .text.ZDO_SleepReq
                0x00000000        0x0 ../BitCloud_ZIGBIT_1_7_0/BitCloud/Components/../lib\libBc_All_ZigBit_Atmega1281_Rf230_8Mhz_Gcc.a(zdoPowerManager.o)
 .text          0x00000000        0x0 ../BitCloud_ZIGBIT_1_7_0/BitCloud/Components/../lib\libBc_All_ZigBit_Atmega1281_Rf230_8Mhz_Gcc.a(zdoSecurityManager.o)
 .data          0x00000000        0x0 ../BitCloud_ZIGBIT_1_7_0/BitCloud/Components/../lib\libBc_All_ZigBit_Atmega1281_Rf230_8Mhz_Gcc.a(zdoSecurityManager.o)
 .bss           0x00000000        0x0 ../BitCloud_ZIGBIT_1_7_0/BitCloud/Components/../lib\libBc_All_ZigBit_Atmega1281_Rf230_8Mhz_Gcc.a(zdoSecurityManager.o)
 .text          0x00000000        0x0 ../BitCloud_ZIGBIT_1_7_0/BitCloud/Components/../lib\libBc_All_ZigBit_Atmega1281_Rf230_8Mhz_Gcc.a(bcSysSleep.o)
 .data          0x00000000        0x0 ../BitCloud_ZIGBIT_1_7_0/BitCloud/Components/../lib\libBc_All_ZigBit_Atmega1281_Rf230_8Mhz_Gcc.a(bcSysSleep.o)
 .bss           0x00000000        0x0 ../BitCloud_ZIGBIT_1_7_0/BitCloud/Components/../lib\libBc_All_ZigBit_Atmega1281_Rf230_8Mhz_Gcc.a(bcSysSleep.o)
 .text          0x00000000        0x0 ../BitCloud_ZIGBIT_1_7_0/BitCloud/Components/../lib\libBc_All_ZigBit_Atmega1281_Rf230_8Mhz_Gcc.a(macMem.o)
 .data          0x00000000        0x0 ../BitCloud_ZIGBIT_1_7_0/BitCloud/Components/../lib\libBc_All_ZigBit_Atmega1281_Rf230_8Mhz_Gcc.a(macMem.o)
 .bss           0x00000000        0x0 ../BitCloud_ZIGBIT_1_7_0/BitCloud/Components/../lib\libBc_All_ZigBit_Atmega1281_Rf230_8Mhz_Gcc.a(macMem.o)
 .text          0x00000000        0x0 ../BitCloud_ZIGBIT_1_7_0/BitCloud/Components/../lib\libBc_All_ZigBit_Atmega1281_Rf230_8Mhz_Gcc.a(macenvPib.o)
 .data          0x00000000        0x0 ../BitCloud_ZIGBIT_1_7_0/BitCloud/Components/../lib\libBc_All_ZigBit_Atmega1281_Rf230_8Mhz_Gcc.a(macenvPib.o)
 .bss           0x00000000        0x0 ../BitCloud_ZIGBIT_1_7_0/BitCloud/Components/../lib\libBc_All_ZigBit_Atmega1281_Rf230_8Mhz_Gcc.a(macenvPib.o)
 .text          0x00000000        0x0 ../BitCloud_ZIGBIT_1_7_0/BitCloud/Components/../lib\libBc_All_ZigBit_Atmega1281_Rf230_8Mhz_Gcc.a(machwdEdHandler.o)
 .data          0x00000000        0x0 ../BitCloud_ZIGBIT_1_7_0/BitCloud/Components/../lib\libBc_All_ZigBit_Atmega1281_Rf230_8Mhz_Gcc.a(machwdEdHandler.o)
 .text          0x00000000        0x0 ../BitCloud_ZIGBIT_1_7_0/BitCloud/Components/../lib\libBc_All_ZigBit_Atmega1281_Rf230_8Mhz_Gcc.a(machwdFrameRoutine.o)
 .data          0x00000000        0x0 ../BitCloud_ZIGBIT_1_7_0/BitCloud/Components/../lib\libBc_All_ZigBit_Atmega1281_Rf230_8Mhz_Gcc.a(machwdFrameRoutine.o)
 .bss           0x00000000        0x0 ../BitCloud_ZIGBIT_1_7_0/BitCloud/Components/../lib\libBc_All_ZigBit_Atmega1281_Rf230_8Mhz_Gcc.a(machwdFrameRoutine.o)
 .text          0x00000000        0x0 ../BitCloud_ZIGBIT_1_7_0/BitCloud/Components/../lib\libBc_All_ZigBit_Atmega1281_Rf230_8Mhz_Gcc.a(machwdHandlerCtrl.o)
 .data          0x00000000        0x0 ../BitCloud_ZIGBIT_1_7_0/BitCloud/Components/../lib\libBc_All_ZigBit_Atmega1281_Rf230_8Mhz_Gcc.a(machwdHandlerCtrl.o)
 .text          0x00000000        0x0 ../BitCloud_ZIGBIT_1_7_0/BitCloud/Components/../lib\libBc_All_ZigBit_Atmega1281_Rf230_8Mhz_Gcc.a(machwiAssociateHandler.o)
 .data          0x00000000        0x0 ../BitCloud_ZIGBIT_1_7_0/BitCloud/Components/../lib\libBc_All_ZigBit_Atmega1281_Rf230_8Mhz_Gcc.a(machwiAssociateHandler.o)
 .bss           0x00000000        0x0 ../BitCloud_ZIGBIT_1_7_0/BitCloud/Components/../lib\libBc_All_ZigBit_Atmega1281_Rf230_8Mhz_Gcc.a(machwiAssociateHandler.o)
 .text          0x00000000        0x0 ../BitCloud_ZIGBIT_1_7_0/BitCloud/Components/../lib\libBc_All_ZigBit_Atmega1281_Rf230_8Mhz_Gcc.a(machwiBeaconHandler.o)
 .data          0x00000000        0x0 ../BitCloud_ZIGBIT_1_7_0/BitCloud/Components/../lib\libBc_All_ZigBit_Atmega1281_Rf230_8Mhz_Gcc.a(machwiBeaconHandler.o)
 .bss           0x00000000        0x0 ../BitCloud_ZIGBIT_1_7_0/BitCloud/Components/../lib\libBc_All_ZigBit_Atmega1281_Rf230_8Mhz_Gcc.a(machwiBeaconHandler.o)
 .text          0x00000000        0x0 ../BitCloud_ZIGBIT_1_7_0/BitCloud/Components/../lib\libBc_All_ZigBit_Atmega1281_Rf230_8Mhz_Gcc.a(machwiDataHandler.o)
 .data          0x00000000        0x0 ../BitCloud_ZIGBIT_1_7_0/BitCloud/Components/../lib\libBc_All_ZigBit_Atmega1281_Rf230_8Mhz_Gcc.a(machwiDataHandler.o)
 .bss           0x00000000        0x0 ../BitCloud_ZIGBIT_1_7_0/BitCloud/Components/../lib\libBc_All_ZigBit_Atmega1281_Rf230_8Mhz_Gcc.a(machwiDataHandler.o)
 .text          0x00000000        0x0 ../BitCloud_ZIGBIT_1_7_0/BitCloud/Components/../lib\libBc_All_ZigBit_Atmega1281_Rf230_8Mhz_Gcc.a(machwiHwdReqMemPool.o)
 .data          0x00000000        0x0 ../BitCloud_ZIGBIT_1_7_0/BitCloud/Components/../lib\libBc_All_ZigBit_Atmega1281_Rf230_8Mhz_Gcc.a(machwiHwdReqMemPool.o)
 .bss           0x00000000        0x0 ../BitCloud_ZIGBIT_1_7_0/BitCloud/Components/../lib\libBc_All_ZigBit_Atmega1281_Rf230_8Mhz_Gcc.a(machwiHwdReqMemPool.o)
 .text          0x00000000        0x0 ../BitCloud_ZIGBIT_1_7_0/BitCloud/Components/../lib\libBc_All_ZigBit_Atmega1281_Rf230_8Mhz_Gcc.a(nwkStateMachine.o)
 .data          0x00000000        0x0 ../BitCloud_ZIGBIT_1_7_0/BitCloud/Components/../lib\libBc_All_ZigBit_Atmega1281_Rf230_8Mhz_Gcc.a(nwkStateMachine.o)
 .bss           0x00000000        0x0 ../BitCloud_ZIGBIT_1_7_0/BitCloud/Components/../lib\libBc_All_ZigBit_Atmega1281_Rf230_8Mhz_Gcc.a(nwkStateMachine.o)
 .text          0x00000000        0x0 ../BitCloud_ZIGBIT_1_7_0/BitCloud/Components/../lib\libBc_All_ZigBit_Atmega1281_Rf230_8Mhz_Gcc.a(phyEd.o)
 .data          0x00000000        0x0 ../BitCloud_ZIGBIT_1_7_0/BitCloud/Components/../lib\libBc_All_ZigBit_Atmega1281_Rf230_8Mhz_Gcc.a(phyEd.o)
 .bss           0x00000000        0x0 ../BitCloud_ZIGBIT_1_7_0/BitCloud/Components/../lib\libBc_All_ZigBit_Atmega1281_Rf230_8Mhz_Gcc.a(phyEd.o)
 .text          0x00000000        0x0 ../BitCloud_ZIGBIT_1_7_0/BitCloud/Components/../lib\libBc_All_ZigBit_Atmega1281_Rf230_8Mhz_Gcc.a(phyRtimerIrqDispatcher.o)
 .data          0x00000000        0x0 ../BitCloud_ZIGBIT_1_7_0/BitCloud/Components/../lib\libBc_All_ZigBit_Atmega1281_Rf230_8Mhz_Gcc.a(phyRtimerIrqDispatcher.o)
 .text          0x00000000        0x0 ../BitCloud_ZIGBIT_1_7_0/BitCloud/Components/./ConfigServer/lib\libConfigServer.a(configServer.o)
 .text          0x00000000        0x0 ../BitCloud_ZIGBIT_1_7_0/BitCloud/Components/./PersistDataServer/lib\libPersistDataServer.a(pdsDataServer.o)
 .data          0x00000000        0x0 ../BitCloud_ZIGBIT_1_7_0/BitCloud/Components/./PersistDataServer/lib\libPersistDataServer.a(pdsDataServer.o)
 .bss           0x00000000        0x0 ../BitCloud_ZIGBIT_1_7_0/BitCloud/Components/./PersistDataServer/lib\libPersistDataServer.a(pdsDataServer.o)
 .text.PDS_WriteUserData
                0x00000000        0x0 ../BitCloud_ZIGBIT_1_7_0/BitCloud/Components/./PersistDataServer/lib\libPersistDataServer.a(pdsDataServer.o)
 .text.PDS_ReadUserData
                0x00000000        0x0 ../BitCloud_ZIGBIT_1_7_0/BitCloud/Components/./PersistDataServer/lib\libPersistDataServer.a(pdsDataServer.o)
 .text.PDS_FlushData
                0x00000000        0x0 ../BitCloud_ZIGBIT_1_7_0/BitCloud/Components/./PersistDataServer/lib\libPersistDataServer.a(pdsDataServer.o)
 .text          0x00000000        0x0 ../BitCloud_ZIGBIT_1_7_0/BitCloud/Components/./PersistDataServer/lib\libPersistDataServer.a(pdsWriteData.o)
 .text          0x00000000        0x0 ../BitCloud_ZIGBIT_1_7_0/BitCloud/Components/./PersistDataServer/lib\libPersistDataServer.a(pdsCrcService.o)
 .data          0x00000000        0x0 ../BitCloud_ZIGBIT_1_7_0/BitCloud/Components/./PersistDataServer/lib\libPersistDataServer.a(pdsCrcService.o)
 .bss           0x00000000        0x0 ../BitCloud_ZIGBIT_1_7_0/BitCloud/Components/./PersistDataServer/lib\libPersistDataServer.a(pdsCrcService.o)
 .text          0x00000000        0x0 ../BitCloud_ZIGBIT_1_7_0/BitCloud/Components/./BSP/lib\libBSPMeshBean.a(bspTII.o)
 .text.TIImeasure
                0x00000000        0x0 ../BitCloud_ZIGBIT_1_7_0/BitCloud/Components/./BSP/lib\libBSPMeshBean.a(bspTII.o)
 .text.WAKEUP_low
                0x00000000        0x0 ../BitCloud_ZIGBIT_1_7_0/BitCloud/Components/./BSP/lib\libBSPMeshBean.a(bspTII.o)
 .text.WAKEUP_high
                0x00000000        0x0 ../BitCloud_ZIGBIT_1_7_0/BitCloud/Components/./BSP/lib\libBSPMeshBean.a(bspTII.o)
 .text          0x00000000        0x0 ../BitCloud_ZIGBIT_1_7_0/BitCloud/Components/./BSP/lib\libBSPMeshBean.a(bspTaskManager.o)
 .data          0x00000000        0x0 ../BitCloud_ZIGBIT_1_7_0/BitCloud/Components/./BSP/lib\libBSPMeshBean.a(bspTaskManager.o)
 .text          0x00000000        0x0 ../BitCloud_ZIGBIT_1_7_0/BitCloud/Components/../lib\libHAL_ZigBit_Atmega1281_8Mhz_Gcc.a(sleep.o)
 .data          0x00000000        0x0 ../BitCloud_ZIGBIT_1_7_0/BitCloud/Components/../lib\libHAL_ZigBit_Atmega1281_8Mhz_Gcc.a(sleep.o)
 .text          0x00000000        0x0 ../BitCloud_ZIGBIT_1_7_0/BitCloud/Components/../lib\libHAL_ZigBit_Atmega1281_8Mhz_Gcc.a(calibration.o)
 .data          0x00000000        0x0 ../BitCloud_ZIGBIT_1_7_0/BitCloud/Components/../lib\libHAL_ZigBit_Atmega1281_8Mhz_Gcc.a(calibration.o)
 .bss           0x00000000        0x0 ../BitCloud_ZIGBIT_1_7_0/BitCloud/Components/../lib\libHAL_ZigBit_Atmega1281_8Mhz_Gcc.a(calibration.o)
 .text          0x00000000        0x0 ../BitCloud_ZIGBIT_1_7_0/BitCloud/Components/../lib\libHAL_ZigBit_Atmega1281_8Mhz_Gcc.a(halInit.o)
 .data          0x00000000        0x0 ../BitCloud_ZIGBIT_1_7_0/BitCloud/Components/../lib\libHAL_ZigBit_Atmega1281_8Mhz_Gcc.a(halInit.o)
 .bss           0x00000000        0x0 ../BitCloud_ZIGBIT_1_7_0/BitCloud/Components/../lib\libHAL_ZigBit_Atmega1281_8Mhz_Gcc.a(halInit.o)
 .text          0x00000000        0x0 ../BitCloud_ZIGBIT_1_7_0/BitCloud/Components/../lib\libHAL_ZigBit_Atmega1281_8Mhz_Gcc.a(halRfSpi.o)
 .data          0x00000000        0x0 ../BitCloud_ZIGBIT_1_7_0/BitCloud/Components/../lib\libHAL_ZigBit_Atmega1281_8Mhz_Gcc.a(halRfSpi.o)
 .bss           0x00000000        0x0 ../BitCloud_ZIGBIT_1_7_0/BitCloud/Components/../lib\libHAL_ZigBit_Atmega1281_8Mhz_Gcc.a(halRfSpi.o)
 .text          0x00000000        0x0 ../BitCloud_ZIGBIT_1_7_0/BitCloud/Components/../lib\libHAL_ZigBit_Atmega1281_8Mhz_Gcc.a(halRfCtrl.o)
 .data          0x00000000        0x0 ../BitCloud_ZIGBIT_1_7_0/BitCloud/Components/../lib\libHAL_ZigBit_Atmega1281_8Mhz_Gcc.a(halRfCtrl.o)
 .bss           0x00000000        0x0 ../BitCloud_ZIGBIT_1_7_0/BitCloud/Components/../lib\libHAL_ZigBit_Atmega1281_8Mhz_Gcc.a(halRfCtrl.o)
 .text.HAL_SetRfSlpTr
                0x00000000        0x0 ../BitCloud_ZIGBIT_1_7_0/BitCloud/Components/../lib\libHAL_ZigBit_Atmega1281_8Mhz_Gcc.a(halRfCtrl.o)
 .text.HAL_ClearRfSlpTr
                0x00000000        0x0 ../BitCloud_ZIGBIT_1_7_0/BitCloud/Components/../lib\libHAL_ZigBit_Atmega1281_8Mhz_Gcc.a(halRfCtrl.o)
 .text.HAL_MakeInRfSlpTr
                0x00000000        0x0 ../BitCloud_ZIGBIT_1_7_0/BitCloud/Components/../lib\libHAL_ZigBit_Atmega1281_8Mhz_Gcc.a(halRfCtrl.o)
 .text.HAL_MakeOutRfSlpTr
                0x00000000        0x0 ../BitCloud_ZIGBIT_1_7_0/BitCloud/Components/../lib\libHAL_ZigBit_Atmega1281_8Mhz_Gcc.a(halRfCtrl.o)
 .text          0x00000000        0x0 ../BitCloud_ZIGBIT_1_7_0/BitCloud/Components/../lib\libHAL_ZigBit_Atmega1281_8Mhz_Gcc.a(halUid.o)
 .data          0x00000000        0x0 ../BitCloud_ZIGBIT_1_7_0/BitCloud/Components/../lib\libHAL_ZigBit_Atmega1281_8Mhz_Gcc.a(halUid.o)
 .bss           0x00000000        0x0 ../BitCloud_ZIGBIT_1_7_0/BitCloud/Components/../lib\libHAL_ZigBit_Atmega1281_8Mhz_Gcc.a(halUid.o)
 .text          0x00000000        0x0 ../BitCloud_ZIGBIT_1_7_0/BitCloud/Components/../lib\libHAL_ZigBit_Atmega1281_8Mhz_Gcc.a(halMacIsr.o)
 .data          0x00000000        0x0 ../BitCloud_ZIGBIT_1_7_0/BitCloud/Components/../lib\libHAL_ZigBit_Atmega1281_8Mhz_Gcc.a(halMacIsr.o)
 .bss           0x00000000        0x0 ../BitCloud_ZIGBIT_1_7_0/BitCloud/Components/../lib\libHAL_ZigBit_Atmega1281_8Mhz_Gcc.a(halMacIsr.o)
 .data          0x00000000        0x0 ../BitCloud_ZIGBIT_1_7_0/BitCloud/Components/../lib\libHAL_ZigBit_Atmega1281_8Mhz_Gcc.a(halW1.o)
 .bss           0x00000000        0x0 ../BitCloud_ZIGBIT_1_7_0/BitCloud/Components/../lib\libHAL_ZigBit_Atmega1281_8Mhz_Gcc.a(halW1.o)
 .data          0x00000000        0x0 ../BitCloud_ZIGBIT_1_7_0/BitCloud/Components/../lib\libHAL_ZigBit_Atmega1281_8Mhz_Gcc.a(halCalibration.o)
 .bss           0x00000000        0x0 ../BitCloud_ZIGBIT_1_7_0/BitCloud/Components/../lib\libHAL_ZigBit_Atmega1281_8Mhz_Gcc.a(halCalibration.o)
 .text          0x00000000        0x0 ../BitCloud_ZIGBIT_1_7_0/BitCloud/Components/../lib\libHAL_ZigBit_Atmega1281_8Mhz_Gcc.a(appTimer.o)
 .data          0x00000000        0x0 ../BitCloud_ZIGBIT_1_7_0/BitCloud/Components/../lib\libHAL_ZigBit_Atmega1281_8Mhz_Gcc.a(appTimer.o)
 .text          0x00000000        0x0 ../BitCloud_ZIGBIT_1_7_0/BitCloud/Components/../lib\libHAL_ZigBit_Atmega1281_8Mhz_Gcc.a(halTaskManager.o)
 .data          0x00000000        0x0 ../BitCloud_ZIGBIT_1_7_0/BitCloud/Components/../lib\libHAL_ZigBit_Atmega1281_8Mhz_Gcc.a(halTaskManager.o)
 .text          0x00000000        0x0 ../BitCloud_ZIGBIT_1_7_0/BitCloud/Components/../lib\libHAL_ZigBit_Atmega1281_8Mhz_Gcc.a(usart.o)
 .data          0x00000000        0x0 ../BitCloud_ZIGBIT_1_7_0/BitCloud/Components/../lib\libHAL_ZigBit_Atmega1281_8Mhz_Gcc.a(usart.o)
 .text.HAL_CloseUsart
                0x00000000        0x0 ../BitCloud_ZIGBIT_1_7_0/BitCloud/Components/../lib\libHAL_ZigBit_Atmega1281_8Mhz_Gcc.a(usart.o)
 .text.HAL_ReadUsart
                0x00000000        0x0 ../BitCloud_ZIGBIT_1_7_0/BitCloud/Components/../lib\libHAL_ZigBit_Atmega1281_8Mhz_Gcc.a(usart.o)
 .text.HAL_OnUsartCts
                0x00000000        0x0 ../BitCloud_ZIGBIT_1_7_0/BitCloud/Components/../lib\libHAL_ZigBit_Atmega1281_8Mhz_Gcc.a(usart.o)
 .text.HAL_OffUsartCts
                0x00000000        0x0 ../BitCloud_ZIGBIT_1_7_0/BitCloud/Components/../lib\libHAL_ZigBit_Atmega1281_8Mhz_Gcc.a(usart.o)
 .text.HAL_ReadUsartRts
                0x00000000        0x0 ../BitCloud_ZIGBIT_1_7_0/BitCloud/Components/../lib\libHAL_ZigBit_Atmega1281_8Mhz_Gcc.a(usart.o)
 .text.HAL_ReadUsartDtr
                0x00000000        0x0 ../BitCloud_ZIGBIT_1_7_0/BitCloud/Components/../lib\libHAL_ZigBit_Atmega1281_8Mhz_Gcc.a(usart.o)
 .text.HAL_EnableDtrWakeUp
                0x00000000        0x0 ../BitCloud_ZIGBIT_1_7_0/BitCloud/Components/../lib\libHAL_ZigBit_Atmega1281_8Mhz_Gcc.a(usart.o)
 .text.HAL_DisableDtrWakeUp
                0x00000000        0x0 ../BitCloud_ZIGBIT_1_7_0/BitCloud/Components/../lib\libHAL_ZigBit_Atmega1281_8Mhz_Gcc.a(usart.o)
 .text.HAL_IsTxEmpty
                0x00000000        0x0 ../BitCloud_ZIGBIT_1_7_0/BitCloud/Components/../lib\libHAL_ZigBit_Atmega1281_8Mhz_Gcc.a(usart.o)
 .text          0x00000000        0x0 ../BitCloud_ZIGBIT_1_7_0/BitCloud/Components/../lib\libHAL_ZigBit_Atmega1281_8Mhz_Gcc.a(w1.o)
 .data          0x00000000        0x0 ../BitCloud_ZIGBIT_1_7_0/BitCloud/Components/../lib\libHAL_ZigBit_Atmega1281_8Mhz_Gcc.a(w1.o)
 .text.HAL_ReadW1
                0x00000000        0x0 ../BitCloud_ZIGBIT_1_7_0/BitCloud/Components/../lib\libHAL_ZigBit_Atmega1281_8Mhz_Gcc.a(w1.o)
 .text.HAL_WriteW1
                0x00000000        0x0 ../BitCloud_ZIGBIT_1_7_0/BitCloud/Components/../lib\libHAL_ZigBit_Atmega1281_8Mhz_Gcc.a(w1.o)
 .text.HAL_ResetW1
                0x00000000        0x0 ../BitCloud_ZIGBIT_1_7_0/BitCloud/Components/../lib\libHAL_ZigBit_Atmega1281_8Mhz_Gcc.a(w1.o)
 .text.HAL_AlarmSearchW1Device
                0x00000000        0x0 ../BitCloud_ZIGBIT_1_7_0/BitCloud/Components/../lib\libHAL_ZigBit_Atmega1281_8Mhz_Gcc.a(w1.o)
 .text          0x00000000        0x0 ../BitCloud_ZIGBIT_1_7_0/BitCloud/Components/../lib\libHAL_ZigBit_Atmega1281_8Mhz_Gcc.a(irq.o)
 .data          0x00000000        0x0 ../BitCloud_ZIGBIT_1_7_0/BitCloud/Components/../lib\libHAL_ZigBit_Atmega1281_8Mhz_Gcc.a(irq.o)
 .bss           0x00000000        0x0 ../BitCloud_ZIGBIT_1_7_0/BitCloud/Components/../lib\libHAL_ZigBit_Atmega1281_8Mhz_Gcc.a(irq.o)
 .text.HAL_UnregisterIrq
                0x00000000        0x0 ../BitCloud_ZIGBIT_1_7_0/BitCloud/Components/../lib\libHAL_ZigBit_Atmega1281_8Mhz_Gcc.a(irq.o)
 .text          0x00000000        0x0 ../BitCloud_ZIGBIT_1_7_0/BitCloud/Components/../lib\libHAL_ZigBit_Atmega1281_8Mhz_Gcc.a(i2cPacket.o)
 .data          0x00000000        0x0 ../BitCloud_ZIGBIT_1_7_0/BitCloud/Components/../lib\libHAL_ZigBit_Atmega1281_8Mhz_Gcc.a(i2cPacket.o)
 .text.HAL_CloseI2cPacket
                0x00000000        0x0 ../BitCloud_ZIGBIT_1_7_0/BitCloud/Components/../lib\libHAL_ZigBit_Atmega1281_8Mhz_Gcc.a(i2cPacket.o)
 .text.HAL_WriteI2cPacket
                0x00000000        0x0 ../BitCloud_ZIGBIT_1_7_0/BitCloud/Components/../lib\libHAL_ZigBit_Atmega1281_8Mhz_Gcc.a(i2cPacket.o)
 .text.HAL_ReadI2cPacket
                0x00000000        0x0 ../BitCloud_ZIGBIT_1_7_0/BitCloud/Components/../lib\libHAL_ZigBit_Atmega1281_8Mhz_Gcc.a(i2cPacket.o)
 .text.halWriteInternalAddress
                0x00000000        0x0 ../BitCloud_ZIGBIT_1_7_0/BitCloud/Components/../lib\libHAL_ZigBit_Atmega1281_8Mhz_Gcc.a(i2cPacket.o)
 .text.HAL_OpenI2cPacket
                0x00000000        0x0 ../BitCloud_ZIGBIT_1_7_0/BitCloud/Components/../lib\libHAL_ZigBit_Atmega1281_8Mhz_Gcc.a(i2cPacket.o)
 .text          0x00000000        0x0 ../BitCloud_ZIGBIT_1_7_0/BitCloud/Components/../lib\libHAL_ZigBit_Atmega1281_8Mhz_Gcc.a(eeprom.o)
 .data          0x00000000        0x0 ../BitCloud_ZIGBIT_1_7_0/BitCloud/Components/../lib\libHAL_ZigBit_Atmega1281_8Mhz_Gcc.a(eeprom.o)
 .text          0x00000000        0x0 ../BitCloud_ZIGBIT_1_7_0/BitCloud/Components/../lib\libHAL_ZigBit_Atmega1281_8Mhz_Gcc.a(timer.o)
 .data          0x00000000        0x0 ../BitCloud_ZIGBIT_1_7_0/BitCloud/Components/../lib\libHAL_ZigBit_Atmega1281_8Mhz_Gcc.a(timer.o)
 .bss           0x00000000        0x0 ../BitCloud_ZIGBIT_1_7_0/BitCloud/Components/../lib\libHAL_ZigBit_Atmega1281_8Mhz_Gcc.a(timer.o)
 .text          0x00000000        0x0 ../BitCloud_ZIGBIT_1_7_0/BitCloud/Components/../lib\libHAL_ZigBit_Atmega1281_8Mhz_Gcc.a(sleepTimer.o)
 .data          0x00000000        0x0 ../BitCloud_ZIGBIT_1_7_0/BitCloud/Components/../lib\libHAL_ZigBit_Atmega1281_8Mhz_Gcc.a(sleepTimer.o)
 .text.HAL_StopSleepTimer
                0x00000000        0x0 ../BitCloud_ZIGBIT_1_7_0/BitCloud/Components/../lib\libHAL_ZigBit_Atmega1281_8Mhz_Gcc.a(sleepTimer.o)
 .text          0x00000000        0x0 ../BitCloud_ZIGBIT_1_7_0/BitCloud/Components/../lib\libHAL_ZigBit_Atmega1281_8Mhz_Gcc.a(adc.o)
 .data          0x00000000        0x0 ../BitCloud_ZIGBIT_1_7_0/BitCloud/Components/../lib\libHAL_ZigBit_Atmega1281_8Mhz_Gcc.a(adc.o)
 .text.HAL_CloseAdc
                0x00000000        0x0 ../BitCloud_ZIGBIT_1_7_0/BitCloud/Components/../lib\libHAL_ZigBit_Atmega1281_8Mhz_Gcc.a(adc.o)
 .text.HAL_ReadAdc
                0x00000000        0x0 ../BitCloud_ZIGBIT_1_7_0/BitCloud/Components/../lib\libHAL_ZigBit_Atmega1281_8Mhz_Gcc.a(adc.o)
 .text.HAL_OpenAdc
                0x00000000        0x0 ../BitCloud_ZIGBIT_1_7_0/BitCloud/Components/../lib\libHAL_ZigBit_Atmega1281_8Mhz_Gcc.a(adc.o)
 .text          0x00000000        0x0 ../BitCloud_ZIGBIT_1_7_0/BitCloud/Components/../lib\libHAL_ZigBit_Atmega1281_8Mhz_Gcc.a(spi.o)
 .data          0x00000000        0x0 ../BitCloud_ZIGBIT_1_7_0/BitCloud/Components/../lib\libHAL_ZigBit_Atmega1281_8Mhz_Gcc.a(spi.o)
 .bss           0x00000000        0x0 ../BitCloud_ZIGBIT_1_7_0/BitCloud/Components/../lib\libHAL_ZigBit_Atmega1281_8Mhz_Gcc.a(spi.o)
 .text.HAL_CloseSpi
                0x00000000        0x0 ../BitCloud_ZIGBIT_1_7_0/BitCloud/Components/../lib\libHAL_ZigBit_Atmega1281_8Mhz_Gcc.a(spi.o)
 .text          0x00000000        0x0 ../BitCloud_ZIGBIT_1_7_0/BitCloud/Components/../lib\libHAL_ZigBit_Atmega1281_8Mhz_Gcc.a(halAppClock.o)
 .data          0x00000000        0x0 ../BitCloud_ZIGBIT_1_7_0/BitCloud/Components/../lib\libHAL_ZigBit_Atmega1281_8Mhz_Gcc.a(halAppClock.o)
 .text.halGetSystemTimeUs
                0x00000000        0x0 ../BitCloud_ZIGBIT_1_7_0/BitCloud/Components/../lib\libHAL_ZigBit_Atmega1281_8Mhz_Gcc.a(halAppClock.o)
 .text.halAppSystemTimeSynchronize
                0x00000000        0x0 ../BitCloud_ZIGBIT_1_7_0/BitCloud/Components/../lib\libHAL_ZigBit_Atmega1281_8Mhz_Gcc.a(halAppClock.o)
 .text          0x00000000        0x0 ../BitCloud_ZIGBIT_1_7_0/BitCloud/Components/../lib\libHAL_ZigBit_Atmega1281_8Mhz_Gcc.a(halClkCtrl.o)
 .data          0x00000000        0x0 ../BitCloud_ZIGBIT_1_7_0/BitCloud/Components/../lib\libHAL_ZigBit_Atmega1281_8Mhz_Gcc.a(halClkCtrl.o)
 .text          0x00000000        0x0 ../BitCloud_ZIGBIT_1_7_0/BitCloud/Components/../lib\libHAL_ZigBit_Atmega1281_8Mhz_Gcc.a(halUsart.o)
 .data          0x00000000        0x0 ../BitCloud_ZIGBIT_1_7_0/BitCloud/Components/../lib\libHAL_ZigBit_Atmega1281_8Mhz_Gcc.a(halUsart.o)
 .bss           0x00000000        0x0 ../BitCloud_ZIGBIT_1_7_0/BitCloud/Components/../lib\libHAL_ZigBit_Atmega1281_8Mhz_Gcc.a(halUsart.o)
 .text          0x00000000        0x0 ../BitCloud_ZIGBIT_1_7_0/BitCloud/Components/../lib\libHAL_ZigBit_Atmega1281_8Mhz_Gcc.a(halIrq.o)
 .data          0x00000000        0x0 ../BitCloud_ZIGBIT_1_7_0/BitCloud/Components/../lib\libHAL_ZigBit_Atmega1281_8Mhz_Gcc.a(halIrq.o)
 .text.halClrIrqConfig
                0x00000000        0x0 ../BitCloud_ZIGBIT_1_7_0/BitCloud/Components/../lib\libHAL_ZigBit_Atmega1281_8Mhz_Gcc.a(halIrq.o)
 .text          0x00000000        0x0 ../BitCloud_ZIGBIT_1_7_0/BitCloud/Components/../lib\libHAL_ZigBit_Atmega1281_8Mhz_Gcc.a(i2c.o)
 .data          0x00000000        0x0 ../BitCloud_ZIGBIT_1_7_0/BitCloud/Components/../lib\libHAL_ZigBit_Atmega1281_8Mhz_Gcc.a(i2c.o)
 .bss           0x00000000        0x0 ../BitCloud_ZIGBIT_1_7_0/BitCloud/Components/../lib\libHAL_ZigBit_Atmega1281_8Mhz_Gcc.a(i2c.o)
 .text.halInitI2c
                0x00000000        0x0 ../BitCloud_ZIGBIT_1_7_0/BitCloud/Components/../lib\libHAL_ZigBit_Atmega1281_8Mhz_Gcc.a(i2c.o)
 .text          0x00000000        0x0 ../BitCloud_ZIGBIT_1_7_0/BitCloud/Components/../lib\libHAL_ZigBit_Atmega1281_8Mhz_Gcc.a(halEeprom.o)
 .data          0x00000000        0x0 ../BitCloud_ZIGBIT_1_7_0/BitCloud/Components/../lib\libHAL_ZigBit_Atmega1281_8Mhz_Gcc.a(halEeprom.o)
 .bss           0x00000000        0x0 ../BitCloud_ZIGBIT_1_7_0/BitCloud/Components/../lib\libHAL_ZigBit_Atmega1281_8Mhz_Gcc.a(halEeprom.o)
 .text          0x00000000        0x0 ../BitCloud_ZIGBIT_1_7_0/BitCloud/Components/../lib\libHAL_ZigBit_Atmega1281_8Mhz_Gcc.a(halSleepTimerClock.o)
 .data          0x00000000        0x0 ../BitCloud_ZIGBIT_1_7_0/BitCloud/Components/../lib\libHAL_ZigBit_Atmega1281_8Mhz_Gcc.a(halSleepTimerClock.o)
 .text.halClearTimeControl
                0x00000000        0x0 ../BitCloud_ZIGBIT_1_7_0/BitCloud/Components/../lib\libHAL_ZigBit_Atmega1281_8Mhz_Gcc.a(halSleepTimerClock.o)
 .text          0x00000000        0x0 ../BitCloud_ZIGBIT_1_7_0/BitCloud/Components/../lib\libHAL_ZigBit_Atmega1281_8Mhz_Gcc.a(halAdc.o)
 .data          0x00000000        0x0 ../BitCloud_ZIGBIT_1_7_0/BitCloud/Components/../lib\libHAL_ZigBit_Atmega1281_8Mhz_Gcc.a(halAdc.o)
 .text.halCloseAdc
                0x00000000        0x0 ../BitCloud_ZIGBIT_1_7_0/BitCloud/Components/../lib\libHAL_ZigBit_Atmega1281_8Mhz_Gcc.a(halAdc.o)
 .text.halStartAdc
                0x00000000        0x0 ../BitCloud_ZIGBIT_1_7_0/BitCloud/Components/../lib\libHAL_ZigBit_Atmega1281_8Mhz_Gcc.a(halAdc.o)
 .text.halOpenAdc
                0x00000000        0x0 ../BitCloud_ZIGBIT_1_7_0/BitCloud/Components/../lib\libHAL_ZigBit_Atmega1281_8Mhz_Gcc.a(halAdc.o)
 .progmem.data  0x00000000        0x0 ../BitCloud_ZIGBIT_1_7_0/BitCloud/Components/../lib\libHAL_ZigBit_Atmega1281_8Mhz_Gcc.a(halAdc.o)
 .text          0x00000000        0x0 ../BitCloud_ZIGBIT_1_7_0/BitCloud/Components/../lib\libHAL_ZigBit_Atmega1281_8Mhz_Gcc.a(halSpi.o)
 .data          0x00000000        0x0 ../BitCloud_ZIGBIT_1_7_0/BitCloud/Components/../lib\libHAL_ZigBit_Atmega1281_8Mhz_Gcc.a(halSpi.o)
 .bss           0x00000000        0x0 ../BitCloud_ZIGBIT_1_7_0/BitCloud/Components/../lib\libHAL_ZigBit_Atmega1281_8Mhz_Gcc.a(halSpi.o)
 .text          0x00000000        0x0 ../BitCloud_ZIGBIT_1_7_0/BitCloud/Components/../lib\libBc_All_ZigBit_Atmega1281_Rf230_8Mhz_Gcc.a(phyRfIrqDispatcher.o)
 .data          0x00000000        0x0 ../BitCloud_ZIGBIT_1_7_0/BitCloud/Components/../lib\libBc_All_ZigBit_Atmega1281_Rf230_8Mhz_Gcc.a(phyRfIrqDispatcher.o)
 .bss           0x00000000        0x0 ../BitCloud_ZIGBIT_1_7_0/BitCloud/Components/../lib\libBc_All_ZigBit_Atmega1281_Rf230_8Mhz_Gcc.a(phyRfIrqDispatcher.o)
 .text          0x00000000        0x0 c:/winavr-20090313/bin/../lib/gcc/avr/4.3.2/avr51\libgcc.a(_mulsi3.o)
 .data          0x00000000        0x0 c:/winavr-20090313/bin/../lib/gcc/avr/4.3.2/avr51\libgcc.a(_mulsi3.o)
 .bss           0x00000000        0x0 c:/winavr-20090313/bin/../lib/gcc/avr/4.3.2/avr51\libgcc.a(_mulsi3.o)
 .text          0x00000000        0x0 c:/winavr-20090313/bin/../lib/gcc/avr/4.3.2/avr51\libgcc.a(_udivmodqi4.o)
 .data          0x00000000        0x0 c:/winavr-20090313/bin/../lib/gcc/avr/4.3.2/avr51\libgcc.a(_udivmodqi4.o)
 .bss           0x00000000        0x0 c:/winavr-20090313/bin/../lib/gcc/avr/4.3.2/avr51\libgcc.a(_udivmodqi4.o)
 .text          0x00000000        0x0 c:/winavr-20090313/bin/../lib/gcc/avr/4.3.2/avr51\libgcc.a(_udivmodhi4.o)
 .data          0x00000000        0x0 c:/winavr-20090313/bin/../lib/gcc/avr/4.3.2/avr51\libgcc.a(_udivmodhi4.o)
 .bss           0x00000000        0x0 c:/winavr-20090313/bin/../lib/gcc/avr/4.3.2/avr51\libgcc.a(_udivmodhi4.o)
 .text          0x00000000        0x0 c:/winavr-20090313/bin/../lib/gcc/avr/4.3.2/avr51\libgcc.a(_divmodhi4.o)
 .data          0x00000000        0x0 c:/winavr-20090313/bin/../lib/gcc/avr/4.3.2/avr51\libgcc.a(_divmodhi4.o)
 .bss           0x00000000        0x0 c:/winavr-20090313/bin/../lib/gcc/avr/4.3.2/avr51\libgcc.a(_divmodhi4.o)
 .text          0x00000000        0x0 c:/winavr-20090313/bin/../lib/gcc/avr/4.3.2/avr51\libgcc.a(_udivmodsi4.o)
 .data          0x00000000        0x0 c:/winavr-20090313/bin/../lib/gcc/avr/4.3.2/avr51\libgcc.a(_udivmodsi4.o)
 .bss           0x00000000        0x0 c:/winavr-20090313/bin/../lib/gcc/avr/4.3.2/avr51\libgcc.a(_udivmodsi4.o)
 .text          0x00000000        0x0 c:/winavr-20090313/bin/../lib/gcc/avr/4.3.2/avr51\libgcc.a(_prologue.o)
 .data          0x00000000        0x0 c:/winavr-20090313/bin/../lib/gcc/avr/4.3.2/avr51\libgcc.a(_prologue.o)
 .bss           0x00000000        0x0 c:/winavr-20090313/bin/../lib/gcc/avr/4.3.2/avr51\libgcc.a(_prologue.o)
 .text          0x00000000        0x0 c:/winavr-20090313/bin/../lib/gcc/avr/4.3.2/avr51\libgcc.a(_epilogue.o)
 .data          0x00000000        0x0 c:/winavr-20090313/bin/../lib/gcc/avr/4.3.2/avr51\libgcc.a(_epilogue.o)
 .bss           0x00000000        0x0 c:/winavr-20090313/bin/../lib/gcc/avr/4.3.2/avr51\libgcc.a(_epilogue.o)
 .text          0x00000000        0x0 c:/winavr-20090313/bin/../lib/gcc/avr/4.3.2/avr51\libgcc.a(_exit.o)
 .data          0x00000000        0x0 c:/winavr-20090313/bin/../lib/gcc/avr/4.3.2/avr51\libgcc.a(_exit.o)
 .bss           0x00000000        0x0 c:/winavr-20090313/bin/../lib/gcc/avr/4.3.2/avr51\libgcc.a(_exit.o)
 .text.libgcc   0x00000000        0x0 c:/winavr-20090313/bin/../lib/gcc/avr/4.3.2/avr51\libgcc.a(_exit.o)
 .fini9         0x00000000        0x0 c:/winavr-20090313/bin/../lib/gcc/avr/4.3.2/avr51\libgcc.a(_exit.o)
 .fini0         0x00000000        0x0 c:/winavr-20090313/bin/../lib/gcc/avr/4.3.2/avr51\libgcc.a(_exit.o)
 .text          0x00000000        0x0 c:/winavr-20090313/bin/../lib/gcc/avr/4.3.2/avr51\libgcc.a(_tablejump.o)
 .data          0x00000000        0x0 c:/winavr-20090313/bin/../lib/gcc/avr/4.3.2/avr51\libgcc.a(_tablejump.o)
 .bss           0x00000000        0x0 c:/winavr-20090313/bin/../lib/gcc/avr/4.3.2/avr51\libgcc.a(_tablejump.o)
 .text          0x00000000        0x0 c:/winavr-20090313/bin/../lib/gcc/avr/4.3.2/avr51\libgcc.a(_clear_bss.o)
 .data          0x00000000        0x0 c:/winavr-20090313/bin/../lib/gcc/avr/4.3.2/avr51\libgcc.a(_clear_bss.o)
 .bss           0x00000000        0x0 c:/winavr-20090313/bin/../lib/gcc/avr/4.3.2/avr51\libgcc.a(_clear_bss.o)
 .text.libgcc   0x00000000        0x0 c:/winavr-20090313/bin/../lib/gcc/avr/4.3.2/avr51\libgcc.a(_clear_bss.o)
 .data          0x00000000        0x0 c:/winavr-20090313/bin/../lib/gcc/avr/4.3.2/avr51\libgcc.a(_lshrdi3.o)
 .bss           0x00000000        0x0 c:/winavr-20090313/bin/../lib/gcc/avr/4.3.2/avr51\libgcc.a(_lshrdi3.o)
 .data          0x00000000        0x0 c:/winavr-20090313/bin/../lib/gcc/avr/4.3.2/avr51\libgcc.a(_ashldi3.o)
 .bss           0x00000000        0x0 c:/winavr-20090313/bin/../lib/gcc/avr/4.3.2/avr51\libgcc.a(_ashldi3.o)
 .bss           0x00000000        0x0 c:/winavr-20090313/bin/../lib/gcc/avr/4.3.2/../../../../avr/lib/avr51\libc.a(rand.o)
 .data          0x00000000        0x0 c:/winavr-20090313/bin/../lib/gcc/avr/4.3.2/../../../../avr/lib/avr51\libc.a(memcpy_P.o)
 .bss           0x00000000        0x0 c:/winavr-20090313/bin/../lib/gcc/avr/4.3.2/../../../../avr/lib/avr51\libc.a(memcpy_P.o)
 .data          0x00000000        0x0 c:/winavr-20090313/bin/../lib/gcc/avr/4.3.2/../../../../avr/lib/avr51\libc.a(memcmp.o)
 .bss           0x00000000        0x0 c:/winavr-20090313/bin/../lib/gcc/avr/4.3.2/../../../../avr/lib/avr51\libc.a(memcmp.o)
 .data          0x00000000        0x0 c:/winavr-20090313/bin/../lib/gcc/avr/4.3.2/../../../../avr/lib/avr51\libc.a(memcpy.o)
 .bss           0x00000000        0x0 c:/winavr-20090313/bin/../lib/gcc/avr/4.3.2/../../../../avr/lib/avr51\libc.a(memcpy.o)
 .data          0x00000000        0x0 c:/winavr-20090313/bin/../lib/gcc/avr/4.3.2/../../../../avr/lib/avr51\libc.a(memset.o)
 .bss           0x00000000        0x0 c:/winavr-20090313/bin/../lib/gcc/avr/4.3.2/../../../../avr/lib/avr51\libc.a(memset.o)
 .text          0x00000000        0x0 c:/winavr-20090313/bin/../lib/gcc/avr/4.3.2/avr51\libgcc.a(_divmodsi4.o)
 .data          0x00000000        0x0 c:/winavr-20090313/bin/../lib/gcc/avr/4.3.2/avr51\libgcc.a(_divmodsi4.o)
 .bss           0x00000000        0x0 c:/winavr-20090313/bin/../lib/gcc/avr/4.3.2/avr51\libgcc.a(_divmodsi4.o)

Memory Configuration

Name             Origin             Length             Attributes
text             0x00000000         0x00020000         xr
data             0x00800200         0x00001e0c         rw !x
eeprom           0x00810000         0x00001000         rw !x
*default*        0x00000000         0xffffffff

Linker script and memory map

Address of section .data set to 0x800200
LOAD c:/winavr-20090313/bin/../lib/gcc/avr/4.3.2/../../../../avr/lib/avr51/crtm1281.o

.text           0x00000000    0x17fd0
                0x00000000                PROVIDE (__text_start, .)
 *(.vectors)
 .vectors       0x00000000       0xcc c:/winavr-20090313/bin/../lib/gcc/avr/4.3.2/../../../../avr/lib/avr51/crtm1281.o
                0x00000000                __vectors
                0x00000000                __vector_default
 *(.vectors)
 *(.progmem.gcc*)
 .progmem.gcc_sw_table
                0x000000cc       0x14 ../BitCloud_ZIGBIT_1_7_0/BitCloud/Components/../lib\libBc_All_ZigBit_Atmega1281_Rf230_8Mhz_Gcc.a(nwkReset.o)
 .progmem.gcc_sw_table
                0x000000e0       0x20 ../BitCloud_ZIGBIT_1_7_0/BitCloud/Components/../lib\libBc_All_ZigBit_Atmega1281_Rf230_8Mhz_Gcc.a(zdoStateMachines.o)
 .progmem.gcc_sw_table
                0x00000100       0x38 ../BitCloud_ZIGBIT_1_7_0/BitCloud/Components/../lib\libBc_All_ZigBit_Atmega1281_Rf230_8Mhz_Gcc.a(machwiManager.o)
 .progmem.gcc_sw_table
                0x00000138       0x16 ../BitCloud_ZIGBIT_1_7_0/BitCloud/Components/../lib\libBc_All_ZigBit_Atmega1281_Rf230_8Mhz_Gcc.a(machwiPanServer.o)
 .progmem.gcc_sw_table
                0x0000014e       0x20 ../BitCloud_ZIGBIT_1_7_0/BitCloud/Components/../lib\libBc_All_ZigBit_Atmega1281_Rf230_8Mhz_Gcc.a(machwiScanHandler.o)
 .progmem.gcc_sw_table
                0x0000016e       0x20 ../BitCloud_ZIGBIT_1_7_0/BitCloud/Components/../lib\libBc_All_ZigBit_Atmega1281_Rf230_8Mhz_Gcc.a(nwkJoinReq.o)
 .progmem.gcc_sw_table
                0x0000018e       0x58 ../BitCloud_ZIGBIT_1_7_0/BitCloud/Components/../lib\libBc_All_ZigBit_Atmega1281_Rf230_8Mhz_Gcc.a(zdoDiscoveryManager.o)
 .progmem.gcc_sw_table
                0x000001e6      0x108 ../BitCloud_ZIGBIT_1_7_0/BitCloud/Components/../lib\libBc_All_ZigBit_Atmega1281_Rf230_8Mhz_Gcc.a(macenvPib.o)
 .progmem.gcc_sw_table
                0x000002ee       0x26 ../BitCloud_ZIGBIT_1_7_0/BitCloud/Components/../lib\libBc_All_ZigBit_Atmega1281_Rf230_8Mhz_Gcc.a(machwdFrameRoutine.o)
 .progmem.gcc_sw_table
                0x00000314       0xf2 ../BitCloud_ZIGBIT_1_7_0/BitCloud/Components/./ConfigServer/lib\libConfigServer.a(configServer.o)
 *(.progmem*)
 .progmem.data  0x00000406        0xa ../BitCloud_ZIGBIT_1_7_0/BitCloud/Components/../lib\libBc_All_ZigBit_Atmega1281_Rf230_8Mhz_Gcc.a(apsTaskManager.o)
 .progmem.data  0x00000410       0x34 ../BitCloud_ZIGBIT_1_7_0/BitCloud/Components/../lib\libBc_All_ZigBit_Atmega1281_Rf230_8Mhz_Gcc.a(nwkReset.o)
                0x00000410                nwkResetFunctions
 .progmem.data  0x00000444       0x1e ../BitCloud_ZIGBIT_1_7_0/BitCloud/Components/../lib\libBc_All_ZigBit_Atmega1281_Rf230_8Mhz_Gcc.a(nwkTaskManager.o)
                0x00000444                nwkhandlers
 .progmem.data  0x00000462       0x21 ../BitCloud_ZIGBIT_1_7_0/BitCloud/Components/../lib\libBc_All_ZigBit_Atmega1281_Rf230_8Mhz_Gcc.a(apsAibManager.o)
 .progmem.data  0x00000483       0x14 ../BitCloud_ZIGBIT_1_7_0/BitCloud/Components/../lib\libBc_All_ZigBit_Atmega1281_Rf230_8Mhz_Gcc.a(nwkCommands.o)
                0x00000483                nwkCommandPacketHandlers
 .progmem.data  0x00000497       0x4b ../BitCloud_ZIGBIT_1_7_0/BitCloud/Components/./PersistDataServer/lib\libPersistDataServer.a(pdsWriteData.o)
                0x00000497                pdsAuxArray
 .progmem.data  0x000004e2        0xc ../BitCloud_ZIGBIT_1_7_0/BitCloud/Components/../lib\libHAL_ZigBit_Atmega1281_8Mhz_Gcc.a(usart.o)
                0x000004ee                . = ALIGN (0x2)
 *(.trampolines*)
 .trampolines   0x000004ee        0x0 linker stubs
 *(.jumptables*)
 *(.lowtext*)
 *(.init0)
 .init0         0x000004ee        0x0 c:/winavr-20090313/bin/../lib/gcc/avr/4.3.2/../../../../avr/lib/avr51/crtm1281.o
                0x000004ee                __init
 .init0         0x000004ee       0x30 ../BitCloud_ZIGBIT_1_7_0/BitCloud/Components/../lib/WdtInitatmega1281Gcc.o
                0x000004ee                halWdtInit
 *(.init0)
 *(.init1)
 *(.init1)
 *(.init2)
 .init2         0x0000051e        0xc c:/winavr-20090313/bin/../lib/gcc/avr/4.3.2/../../../../avr/lib/avr51/crtm1281.o
 *(.init2)
 *(.init3)
 *(.init3)
 *(.init4)
 .init4         0x0000052a       0x1a c:/winavr-20090313/bin/../lib/gcc/avr/4.3.2/../../../../avr/lib/avr51/crtm1281.o
                0x0000052a                __do_copy_data
 .init4         0x00000544       0x10 c:/winavr-20090313/bin/../lib/gcc/avr/4.3.2/avr51\libgcc.a(_clear_bss.o)
                0x00000544                __do_clear_bss
 *(.init4)
 *(.init5)
 *(.init5)
 *(.init6)
 *(.init6)
 *(.init7)
 *(.init7)
 *(.init8)
 *(.init8)
 *(.text.main)
 .text.main     0x00000554       0x26 ../BitCloud_ZIGBIT_1_7_0/BitCloud/Components/../lib\libBc_All_ZigBit_Atmega1281_Rf230_8Mhz_Gcc.a(main.o)
                0x00000554                main
 *(.text.main)
 *(.text)
 .text          0x0000057a        0x4 c:/winavr-20090313/bin/../lib/gcc/avr/4.3.2/../../../../avr/lib/avr51/crtm1281.o
                0x0000057a                __vector_22
                0x0000057a                __vector_28
                0x0000057a                __vector_1
                0x0000057a                __vector_32
                0x0000057a                __vector_34
                0x0000057a                __vector_24
                0x0000057a                __vector_12
                0x0000057a                __vector_46
                0x0000057a                __bad_interrupt
                0x0000057a                __vector_31
                0x0000057a                __vector_35
                0x0000057a                __vector_3
                0x0000057a                __vector_23
                0x0000057a                __vector_45
                0x0000057a                __vector_11
                0x0000057a                __vector_17
                0x0000057a                __vector_19
                0x0000057a                __vector_49
                0x0000057a                __vector_41
                0x0000057a                __vector_33
                0x0000057a                __vector_47
                0x0000057a                __vector_4
                0x0000057a                __vector_44
                0x0000057a                __vector_9
                0x0000057a                __vector_2
                0x0000057a                __vector_21
                0x0000057a                __vector_40
                0x0000057a                __vector_48
                0x0000057a                __vector_14
                0x0000057a                __vector_10
                0x0000057a                __vector_50
                0x0000057a                __vector_16
                0x0000057a                __vector_18
                0x0000057a                __vector_20
 .text          0x0000057e       0xce ../BitCloud_ZIGBIT_1_7_0/BitCloud/Components/../lib\libHAL_ZigBit_Atmega1281_8Mhz_Gcc.a(halW1.o)
                0x0000063c                __delay_us
                0x0000057e                halResetW1
                0x0000062a                halWriteW1
                0x000005b2                halReadW1Bit
                0x000005e2                halReadW1
                0x000005fe                halWriteW1bit
 .text          0x0000064c       0x3a ../BitCloud_ZIGBIT_1_7_0/BitCloud/Components/../lib\libHAL_ZigBit_Atmega1281_8Mhz_Gcc.a(halCalibration.o)
                0x0000064c                halMeasurement
 .text          0x00000686       0xfe c:/winavr-20090313/bin/../lib/gcc/avr/4.3.2/avr51\libgcc.a(_lshrdi3.o)
                0x00000686                __lshrdi3
 .text          0x00000784       0xfe c:/winavr-20090313/bin/../lib/gcc/avr/4.3.2/avr51\libgcc.a(_ashldi3.o)
                0x00000784                __ashldi3
 .text          0x00000882       0xc2 c:/winavr-20090313/bin/../lib/gcc/avr/4.3.2/../../../../avr/lib/avr51\libc.a(rand.o)
                0x0000091e                rand_r
                0x00000924                rand
                0x0000092e                srand
 .text          0x00000944       0x12 c:/winavr-20090313/bin/../lib/gcc/avr/4.3.2/../../../../avr/lib/avr51\libc.a(memcpy_P.o)
                0x00000944                memcpy_P
 .text          0x00000956       0x1a c:/winavr-20090313/bin/../lib/gcc/avr/4.3.2/../../../../avr/lib/avr51\libc.a(memcmp.o)
                0x00000956                memcmp
 .text          0x00000970       0x12 c:/winavr-20090313/bin/../lib/gcc/avr/4.3.2/../../../../avr/lib/avr51\libc.a(memcpy.o)
                0x00000970                memcpy
 .text          0x00000982        0xe c:/winavr-20090313/bin/../lib/gcc/avr/4.3.2/../../../../avr/lib/avr51\libc.a(memset.o)
                0x00000982                memset
 *(.text.*)
 .text.initMessages
                0x00000990       0x9a ./objs/messages.o
                0x00000990                initMessages
 .text.APS_DataConf
                0x00000a2a       0x1a ./objs/messages.o
                0x00000a2a                APS_DataConf
 .text.APS_DataInd
                0x00000a44       0x10 ./objs/messages.o
                0x00000a44                APS_DataInd
 .text.APS_CommandInd
                0x00000a54       0x10 ./objs/messages.o
                0x00000a54                APS_CommandInd
 .text.sendCommand_wZ
                0x00000a64       0x3e ./objs/messages.o
                0x00000a64                sendCommand_wZ
 .text.sendMessage_wZ
                0x00000aa2       0x3e ./objs/messages.o
                0x00000aa2                sendMessage_wZ
 .text.registerEndpoints
                0x00000ae0       0x42 ./objs/messages.o
                0x00000ae0                registerEndpoints
 .text.delaytimerFired
                0x00000b22       0x18 ./objs/ncap_wilma.o
                0x00000b22                delaytimerFired
 .text.ZDO_MgmtNwkUpdateNotf
                0x00000b3a        0x2 ./objs/ncap_wilma.o
                0x00000b3a                ZDO_MgmtNwkUpdateNotf
 .text.ZDO_WakeUpInd
                0x00000b3c        0x2 ./objs/ncap_wilma.o
                0x00000b3c                ZDO_WakeUpInd
 .text.APL_TaskHandler
                0x00000b3e       0x60 ./objs/ncap_wilma.o
                0x00000b3e                APL_TaskHandler
 .text.ZDO_StartNetworkConf
                0x00000b9e       0x94 ./objs/ncap_wilma.o
 .text.CommandIndication
                0x00000c32       0x52 ./objs/ncap_wilma.o
                0x00000c32                CommandIndication
 .text.tiiNRCallback
                0x00000c84       0x1e ./objs/ncap_wilma.o
                0x00000c84                tiiNRCallback
 .text.tiiIDCallback
                0x00000ca2       0x52 ./objs/ncap_wilma.o
                0x00000ca2                tiiIDCallback
 .text.tiiStopCallback
                0x00000cf4       0x10 ./objs/ncap_wilma.o
                0x00000cf4                tiiStopCallback
 .text.tiiCMeasureCallback
                0x00000d04       0x10 ./objs/ncap_wilma.o
                0x00000d04                tiiCMeasureCallback
 .text.dataReadyCallback
                0x00000d14       0x28 ./objs/ncap_wilma.o
                0x00000d14                dataReadyCallback
 .text.initNwkParams
                0x00000d3c       0x3e ./objs/nwkConfig.o
                0x00000d3c                initNwkParams
 .text.addMessageToBuffer
                0x00000d7a       0x52 ./objs/uart_buffer.o
                0x00000d7a                addMessageToBuffer
 .text.getNextMessageFromBuffer
                0x00000dcc       0x96 ./objs/uart_buffer.o
                0x00000dcc                getNextMessageFromBuffer
 .text.UARTSendNext
                0x00000e62       0x5c ./objs/uart_buffer.o
                0x00000e62                UARTSendNext
 .text.UARTSendConfirm
                0x00000ebe       0x12 ./objs/uart_buffer.o
                0x00000ebe                UARTSendConfirm
 .text.SendUART
                0x00000ed0       0x2e ./objs/uart_buffer.o
                0x00000ed0                SendUART
 .text.uartInit
                0x00000efe       0x74 ./objs/uart_buffer.o
                0x00000efe                uartInit
 .text.apsFindRegisteredEnpoint
                0x00000f72       0x2c ../BitCloud_ZIGBIT_1_7_0/BitCloud/Components/../lib\libBc_All_ZigBit_Atmega1281_Rf230_8Mhz_Gcc.a(apsControlManager.o)
                0x00000f72                apsFindRegisteredEnpoint
 .text.APS_GetEndpointList
                0x00000f9e        0xa ../BitCloud_ZIGBIT_1_7_0/BitCloud/Components/../lib\libBc_All_ZigBit_Atmega1281_Rf230_8Mhz_Gcc.a(apsControlManager.o)
                0x00000f9e                APS_GetEndpointList
 .text.apsSendStopConf
                0x00000fa8       0x16 ../BitCloud_ZIGBIT_1_7_0/BitCloud/Components/../lib\libBc_All_ZigBit_Atmega1281_Rf230_8Mhz_Gcc.a(apsControlManager.o)
                0x00000fa8                apsSendStopConf
 .text.apsGetEndpointDescriptor
                0x00000fbe       0x14 ../BitCloud_ZIGBIT_1_7_0/BitCloud/Components/../lib\libBc_All_ZigBit_Atmega1281_Rf230_8Mhz_Gcc.a(apsControlManager.o)
                0x00000fbe                apsGetEndpointDescriptor
 .text.APS_StopReq
                0x00000fd2       0x7e ../BitCloud_ZIGBIT_1_7_0/BitCloud/Components/../lib\libBc_All_ZigBit_Atmega1281_Rf230_8Mhz_Gcc.a(apsControlManager.o)
                0x00000fd2                APS_StopReq
 .text.apsCompleteStop
                0x00001050       0x50 ../BitCloud_ZIGBIT_1_7_0/BitCloud/Components/../lib\libBc_All_ZigBit_Atmega1281_Rf230_8Mhz_Gcc.a(apsControlManager.o)
                0x00001050                apsCompleteStop
 .text.apsControlManagerProcess
                0x000010a0       0x18 ../BitCloud_ZIGBIT_1_7_0/BitCloud/Components/../lib\libBc_All_ZigBit_Atmega1281_Rf230_8Mhz_Gcc.a(apsControlManager.o)
                0x000010a0                apsControlManagerProcess
 .text.APS_StartReq
                0x000010b8       0x34 ../BitCloud_ZIGBIT_1_7_0/BitCloud/Components/../lib\libBc_All_ZigBit_Atmega1281_Rf230_8Mhz_Gcc.a(apsControlManager.o)
                0x000010b8                APS_StartReq
 .text.APS_ResetReq
                0x000010ec       0x36 ../BitCloud_ZIGBIT_1_7_0/BitCloud/Components/../lib\libBc_All_ZigBit_Atmega1281_Rf230_8Mhz_Gcc.a(apsControlManager.o)
                0x000010ec                APS_ResetReq
 .text.apsNwkResetConf
                0x00001122       0x96 ../BitCloud_ZIGBIT_1_7_0/BitCloud/Components/../lib\libBc_All_ZigBit_Atmega1281_Rf230_8Mhz_Gcc.a(apsControlManager.o)
 .text.APS_Init
                0x000011b8       0x12 ../BitCloud_ZIGBIT_1_7_0/BitCloud/Components/../lib\libBc_All_ZigBit_Atmega1281_Rf230_8Mhz_Gcc.a(apsControlManager.o)
                0x000011b8                APS_Init
 .text.APS_RegisterEndpointReq
                0x000011ca       0x52 ../BitCloud_ZIGBIT_1_7_0/BitCloud/Components/../lib\libBc_All_ZigBit_Atmega1281_Rf230_8Mhz_Gcc.a(apsControlManager.o)
                0x000011ca                APS_RegisterEndpointReq
 .text.apsAckForFragmentedReceiveConfirmHandler
                0x0000121c        0xc ../BitCloud_ZIGBIT_1_7_0/BitCloud/Components/../lib\libBc_All_ZigBit_Atmega1281_Rf230_8Mhz_Gcc.a(apsDataManager.o)
                0x0000121c                apsAckForFragmentedReceiveConfirmHandler
 .text.getMemory
                0x00001228      0x138 ../BitCloud_ZIGBIT_1_7_0/BitCloud/Components/../lib\libBc_All_ZigBit_Atmega1281_Rf230_8Mhz_Gcc.a(apsDataManager.o)
 .text.freeMemory
                0x00001360       0xd4 ../BitCloud_ZIGBIT_1_7_0/BitCloud/Components/../lib\libBc_All_ZigBit_Atmega1281_Rf230_8Mhz_Gcc.a(apsDataManager.o)
 .text.apsMakeNwkDataResp
                0x00001434       0x1c ../BitCloud_ZIGBIT_1_7_0/BitCloud/Components/../lib\libBc_All_ZigBit_Atmega1281_Rf230_8Mhz_Gcc.a(apsDataManager.o)
                0x00001434                apsMakeNwkDataResp
 .text.apsMakeApsDataConf
                0x00001450       0x40 ../BitCloud_ZIGBIT_1_7_0/BitCloud/Components/../lib\libBc_All_ZigBit_Atmega1281_Rf230_8Mhz_Gcc.a(apsDataManager.o)
 .text.APS_CalculateTimes
                0x00001490      0x11c ../BitCloud_ZIGBIT_1_7_0/BitCloud/Components/../lib\libBc_All_ZigBit_Atmega1281_Rf230_8Mhz_Gcc.a(apsDataManager.o)
                0x00001490                APS_CalculateTimes
 .text.apsDuplicateRejectionTableOnTimerFired
                0x000015ac       0x34 ../BitCloud_ZIGBIT_1_7_0/BitCloud/Components/../lib\libBc_All_ZigBit_Atmega1281_Rf230_8Mhz_Gcc.a(apsDataManager.o)
 .text.apsStopDataManager
                0x000015e0       0x18 ../BitCloud_ZIGBIT_1_7_0/BitCloud/Components/../lib\libBc_All_ZigBit_Atmega1281_Rf230_8Mhz_Gcc.a(apsDataManager.o)
                0x000015e0                apsStopDataManager
 .text.apsSendNwkDataReq
                0x000015f8       0x10 ../BitCloud_ZIGBIT_1_7_0/BitCloud/Components/../lib\libBc_All_ZigBit_Atmega1281_Rf230_8Mhz_Gcc.a(apsDataManager.o)
                0x000015f8                apsSendNwkDataReq
 .text.apsProcessGroupAddrModeDataReq
                0x00001608      0x170 ../BitCloud_ZIGBIT_1_7_0/BitCloud/Components/../lib\libBc_All_ZigBit_Atmega1281_Rf230_8Mhz_Gcc.a(apsDataManager.o)
                0x00001608                apsProcessGroupAddrModeDataReq
 .text.apsSendAckForFragmentedReceive
                0x00001778       0xb0 ../BitCloud_ZIGBIT_1_7_0/BitCloud/Components/../lib\libBc_All_ZigBit_Atmega1281_Rf230_8Mhz_Gcc.a(apsDataManager.o)
                0x00001778                apsSendAckForFragmentedReceive
 .text.apsAckOnTimerFired
                0x00001828      0x102 ../BitCloud_ZIGBIT_1_7_0/BitCloud/Components/../lib\libBc_All_ZigBit_Atmega1281_Rf230_8Mhz_Gcc.a(apsDataManager.o)
 .text.apsFindDuplicateRejectionTableEntry
                0x0000192a       0xea ../BitCloud_ZIGBIT_1_7_0/BitCloud/Components/../lib\libBc_All_ZigBit_Atmega1281_Rf230_8Mhz_Gcc.a(apsDataManager.o)
 .text.apsMakeBroadcastIndication
                0x00001a14       0x4e ../BitCloud_ZIGBIT_1_7_0/BitCloud/Components/../lib\libBc_All_ZigBit_Atmega1281_Rf230_8Mhz_Gcc.a(apsDataManager.o)
 .text.apsProcessUnicastDataReqToOwnNode
                0x00001a62      0x166 ../BitCloud_ZIGBIT_1_7_0/BitCloud/Components/../lib\libBc_All_ZigBit_Atmega1281_Rf230_8Mhz_Gcc.a(apsDataManager.o)
 .text.apsProcessShortAddrModeDataReq
                0x00001bc8      0x1dc ../BitCloud_ZIGBIT_1_7_0/BitCloud/Components/../lib\libBc_All_ZigBit_Atmega1281_Rf230_8Mhz_Gcc.a(apsDataManager.o)
                0x00001bc8                apsProcessShortAddrModeDataReq
 .text.apsMakeRetransmittion
                0x00001da4       0x76 ../BitCloud_ZIGBIT_1_7_0/BitCloud/Components/../lib\libBc_All_ZigBit_Atmega1281_Rf230_8Mhz_Gcc.a(apsDataManager.o)
 .text.apsRetransmissionProcess
                0x00001e1a       0xec ../BitCloud_ZIGBIT_1_7_0/BitCloud/Components/../lib\libBc_All_ZigBit_Atmega1281_Rf230_8Mhz_Gcc.a(apsDataManager.o)
                0x00001e1a                apsRetransmissionProcess
 .text.apduAckHandler
                0x00001f06      0x254 ../BitCloud_ZIGBIT_1_7_0/BitCloud/Components/../lib\libBc_All_ZigBit_Atmega1281_Rf230_8Mhz_Gcc.a(apsDataManager.o)
                0x00001f06                apduAckHandler
 .text.apsSendNextBlock
                0x0000215a       0x14 ../BitCloud_ZIGBIT_1_7_0/BitCloud/Components/../lib\libBc_All_ZigBit_Atmega1281_Rf230_8Mhz_Gcc.a(apsDataManager.o)
 .text.apsDmHotReset
                0x0000216e      0x102 ../BitCloud_ZIGBIT_1_7_0/BitCloud/Components/../lib\libBc_All_ZigBit_Atmega1281_Rf230_8Mhz_Gcc.a(apsDataManager.o)
                0x0000216e                apsDmHotReset
 .text.apsApsDataReqProcess
                0x00002270      0x300 ../BitCloud_ZIGBIT_1_7_0/BitCloud/Components/../lib\libBc_All_ZigBit_Atmega1281_Rf230_8Mhz_Gcc.a(apsDataManager.o)
                0x00002270                apsApsDataReqProcess
 .text.apsMakeGroupIndication
                0x00002570       0x80 ../BitCloud_ZIGBIT_1_7_0/BitCloud/Components/../lib\libBc_All_ZigBit_Atmega1281_Rf230_8Mhz_Gcc.a(apsDataManager.o)
 .text.apduMulticastHandler
                0x000025f0       0xde ../BitCloud_ZIGBIT_1_7_0/BitCloud/Components/../lib\libBc_All_ZigBit_Atmega1281_Rf230_8Mhz_Gcc.a(apsDataManager.o)
                0x000025f0                apduMulticastHandler
 .text.apsConstructAndSendAck
                0x000026ce      0x1d2 ../BitCloud_ZIGBIT_1_7_0/BitCloud/Components/../lib\libBc_All_ZigBit_Atmega1281_Rf230_8Mhz_Gcc.a(apsDataManager.o)
                0x000026ce                apsConstructAndSendAck
 .text.isMemoryAvailableForAck
                0x000028a0       0x84 ../BitCloud_ZIGBIT_1_7_0/BitCloud/Components/../lib\libBc_All_ZigBit_Atmega1281_Rf230_8Mhz_Gcc.a(apsDataManager.o)
                0x000028a0                isMemoryAvailableForAck
 .text.NWK_DataConf
                0x00002924       0x1c ../BitCloud_ZIGBIT_1_7_0/BitCloud/Components/../lib\libBc_All_ZigBit_Atmega1281_Rf230_8Mhz_Gcc.a(apsDataManager.o)
                0x00002924                NWK_DataConf
 .text.NWK_DataInd
                0x00002940       0x1c ../BitCloud_ZIGBIT_1_7_0/BitCloud/Components/../lib\libBc_All_ZigBit_Atmega1281_Rf230_8Mhz_Gcc.a(apsDataManager.o)
                0x00002940                NWK_DataInd
 .text.APS_DataReq
                0x0000295c       0x12 ../BitCloud_ZIGBIT_1_7_0/BitCloud/Components/../lib\libBc_All_ZigBit_Atmega1281_Rf230_8Mhz_Gcc.a(apsDataManager.o)
                0x0000295c                APS_DataReq
 .text.apsProcessIndirectNwkConf
                0x0000296e      0x1fe ../BitCloud_ZIGBIT_1_7_0/BitCloud/Components/../lib\libBc_All_ZigBit_Atmega1281_Rf230_8Mhz_Gcc.a(apsDataManager.o)
 .text.apsNwkDataConfProcess
                0x00002b6c      0x300 ../BitCloud_ZIGBIT_1_7_0/BitCloud/Components/../lib\libBc_All_ZigBit_Atmega1281_Rf230_8Mhz_Gcc.a(apsDataManager.o)
                0x00002b6c                apsNwkDataConfProcess
 .text.apsProcessIndirectDataReq
                0x00002e6c       0x86 ../BitCloud_ZIGBIT_1_7_0/BitCloud/Components/../lib\libBc_All_ZigBit_Atmega1281_Rf230_8Mhz_Gcc.a(apsDataManager.o)
                0x00002e6c                apsProcessIndirectDataReq
 .text.apsResetDataManager
                0x00002ef2      0x164 ../BitCloud_ZIGBIT_1_7_0/BitCloud/Components/../lib\libBc_All_ZigBit_Atmega1281_Rf230_8Mhz_Gcc.a(apsDataManager.o)
                0x00002ef2                apsResetDataManager
 .text.apsInitFragmentedReceiveDescriptor
                0x00003056       0x84 ../BitCloud_ZIGBIT_1_7_0/BitCloud/Components/../lib\libBc_All_ZigBit_Atmega1281_Rf230_8Mhz_Gcc.a(apsDataManager.o)
                0x00003056                apsInitFragmentedReceiveDescriptor
 .text.apsProcessFragmentedReceive
                0x000030da      0x2a8 ../BitCloud_ZIGBIT_1_7_0/BitCloud/Components/../lib\libBc_All_ZigBit_Atmega1281_Rf230_8Mhz_Gcc.a(apsDataManager.o)
                0x000030da                apsProcessFragmentedReceive
 .text.apduUnicastHandler
                0x00003382      0x2b2 ../BitCloud_ZIGBIT_1_7_0/BitCloud/Components/../lib\libBc_All_ZigBit_Atmega1281_Rf230_8Mhz_Gcc.a(apsDataManager.o)
                0x00003382                apduUnicastHandler
 .text.apsNwkDataIndHandler
                0x00003634       0x72 ../BitCloud_ZIGBIT_1_7_0/BitCloud/Components/../lib\libBc_All_ZigBit_Atmega1281_Rf230_8Mhz_Gcc.a(apsDataManager.o)
                0x00003634                apsNwkDataIndHandler
 .text.apsNwkDataIndProcess
                0x000036a6       0x80 ../BitCloud_ZIGBIT_1_7_0/BitCloud/Components/../lib\libBc_All_ZigBit_Atmega1281_Rf230_8Mhz_Gcc.a(apsDataManager.o)
                0x000036a6                apsNwkDataIndProcess
 .text.apsDataManagerProcess
                0x00003726       0x38 ../BitCloud_ZIGBIT_1_7_0/BitCloud/Components/../lib\libBc_All_ZigBit_Atmega1281_Rf230_8Mhz_Gcc.a(apsDataManager.o)
                0x00003726                apsDataManagerProcess
 .text.APS_FindGroup
                0x0000375e       0x64 ../BitCloud_ZIGBIT_1_7_0/BitCloud/Components/../lib\libBc_All_ZigBit_Atmega1281_Rf230_8Mhz_Gcc.a(apsGroupManager.o)
                0x0000375e                APS_FindGroup
 .text.APS_IsOwnGroup
                0x000037c2       0x14 ../BitCloud_ZIGBIT_1_7_0/BitCloud/Components/../lib\libBc_All_ZigBit_Atmega1281_Rf230_8Mhz_Gcc.a(apsGroupManager.o)
                0x000037c2                APS_IsOwnGroup
 .text.APS_FindGroupMember
                0x000037d6       0x26 ../BitCloud_ZIGBIT_1_7_0/BitCloud/Components/../lib\libBc_All_ZigBit_Atmega1281_Rf230_8Mhz_Gcc.a(apsGroupManager.o)
                0x000037d6                APS_FindGroupMember
 .text.apsGetGroupMember
                0x000037fc       0x34 ../BitCloud_ZIGBIT_1_7_0/BitCloud/Components/../lib\libBc_All_ZigBit_Atmega1281_Rf230_8Mhz_Gcc.a(apsGroupManager.o)
                0x000037fc                apsGetGroupMember
 .text.apsGroupManagerProcess
                0x00003830        0x2 ../BitCloud_ZIGBIT_1_7_0/BitCloud/Components/../lib\libBc_All_ZigBit_Atmega1281_Rf230_8Mhz_Gcc.a(apsGroupManager.o)
                0x00003830                apsGroupManagerProcess
 .text.apsResetGroupManager
                0x00003832       0x64 ../BitCloud_ZIGBIT_1_7_0/BitCloud/Components/../lib\libBc_All_ZigBit_Atmega1281_Rf230_8Mhz_Gcc.a(apsGroupManager.o)
                0x00003832                apsResetGroupManager
 .text.apsSetState
                0x00003896        0xe ../BitCloud_ZIGBIT_1_7_0/BitCloud/Components/../lib\libBc_All_ZigBit_Atmega1281_Rf230_8Mhz_Gcc.a(apsStateMachine.o)
                0x00003896                apsSetState
 .text.apsGetState
                0x000038a4        0x6 ../BitCloud_ZIGBIT_1_7_0/BitCloud/Components/../lib\libBc_All_ZigBit_Atmega1281_Rf230_8Mhz_Gcc.a(apsStateMachine.o)
                0x000038a4                apsGetState
 .text.apsGetPrevState
                0x000038aa        0x6 ../BitCloud_ZIGBIT_1_7_0/BitCloud/Components/../lib\libBc_All_ZigBit_Atmega1281_Rf230_8Mhz_Gcc.a(apsStateMachine.o)
                0x000038aa                apsGetPrevState
 .text.apsResetStateMachine
                0x000038b0       0x1e ../BitCloud_ZIGBIT_1_7_0/BitCloud/Components/../lib\libBc_All_ZigBit_Atmega1281_Rf230_8Mhz_Gcc.a(apsStateMachine.o)
                0x000038b0                apsResetStateMachine
 .text.apsCheckState
                0x000038ce       0x40 ../BitCloud_ZIGBIT_1_7_0/BitCloud/Components/../lib\libBc_All_ZigBit_Atmega1281_Rf230_8Mhz_Gcc.a(apsStateMachine.o)
                0x000038ce                apsCheckState
 .text.apsPostTask
                0x0000390e       0x38 ../BitCloud_ZIGBIT_1_7_0/BitCloud/Components/../lib\libBc_All_ZigBit_Atmega1281_Rf230_8Mhz_Gcc.a(apsTaskManager.o)
                0x0000390e                apsPostTask
 .text.apsResetTaskManager
                0x00003946        0x6 ../BitCloud_ZIGBIT_1_7_0/BitCloud/Components/../lib\libBc_All_ZigBit_Atmega1281_Rf230_8Mhz_Gcc.a(apsTaskManager.o)
                0x00003946                apsResetTaskManager
 .text.APS_TaskHandler
                0x0000394c       0x90 ../BitCloud_ZIGBIT_1_7_0/BitCloud/Components/../lib\libBc_All_ZigBit_Atmega1281_Rf230_8Mhz_Gcc.a(apsTaskManager.o)
                0x0000394c                APS_TaskHandler
 .text.apsStopAppTimer
                0x000039dc       0x12 ../BitCloud_ZIGBIT_1_7_0/BitCloud/Components/../lib\libBc_All_ZigBit_Atmega1281_Rf230_8Mhz_Gcc.a(apsTimer.o)
                0x000039dc                apsStopAppTimer
 .text.apsInitAppTimer
                0x000039ee       0x44 ../BitCloud_ZIGBIT_1_7_0/BitCloud/Components/../lib\libBc_All_ZigBit_Atmega1281_Rf230_8Mhz_Gcc.a(apsTimer.o)
                0x000039ee                apsInitAppTimer
 .text.apsStartAppTimer
                0x00003a32       0x14 ../BitCloud_ZIGBIT_1_7_0/BitCloud/Components/../lib\libBc_All_ZigBit_Atmega1281_Rf230_8Mhz_Gcc.a(apsTimer.o)
                0x00003a32                apsStartAppTimer
 .text.NWK_GetShortAddr
                0x00003a46        0xa ../BitCloud_ZIGBIT_1_7_0/BitCloud/Components/../lib\libBc_All_ZigBit_Atmega1281_Rf230_8Mhz_Gcc.a(nwkAddress.o)
                0x00003a46                NWK_GetShortAddr
 .text.nwkCSkip
                0x00003a50       0x88 ../BitCloud_ZIGBIT_1_7_0/BitCloud/Components/../lib\libBc_All_ZigBit_Atmega1281_Rf230_8Mhz_Gcc.a(nwkAddress.o)
                0x00003a50                nwkCSkip
 .text.nwkAllocateShortAddr
                0x00003ad8       0xd0 ../BitCloud_ZIGBIT_1_7_0/BitCloud/Components/../lib\libBc_All_ZigBit_Atmega1281_Rf230_8Mhz_Gcc.a(nwkAddress.o)
                0x00003ad8                nwkAllocateShortAddr
 .text.nwkResetAddressMap
                0x00003ba8       0x68 ../BitCloud_ZIGBIT_1_7_0/BitCloud/Components/../lib\libBc_All_ZigBit_Atmega1281_Rf230_8Mhz_Gcc.a(nwkAddressMap.o)
                0x00003ba8                nwkResetAddressMap
 .text.nwkAddrConflictConf
                0x00003c10       0x90 ../BitCloud_ZIGBIT_1_7_0/BitCloud/Components/../lib\libBc_All_ZigBit_Atmega1281_Rf230_8Mhz_Gcc.a(nwkAddressMap.o)
 .text.NWK_AddToAddressMap
                0x00003ca0      0x15a ../BitCloud_ZIGBIT_1_7_0/BitCloud/Components/../lib\libBc_All_ZigBit_Atmega1281_Rf230_8Mhz_Gcc.a(nwkAddressMap.o)
                0x00003ca0                NWK_AddToAddressMap
 .text.NWK_GetExtByShortAddress
                0x00003dfa       0x6e ../BitCloud_ZIGBIT_1_7_0/BitCloud/Components/../lib\libBc_All_ZigBit_Atmega1281_Rf230_8Mhz_Gcc.a(nwkAddressMap.o)
                0x00003dfa                NWK_GetExtByShortAddress
 .text.NWK_GetShortByExtAddress
                0x00003e68       0xbc ../BitCloud_ZIGBIT_1_7_0/BitCloud/Components/../lib\libBc_All_ZigBit_Atmega1281_Rf230_8Mhz_Gcc.a(nwkAddressMap.o)
                0x00003e68                NWK_GetShortByExtAddress
 .text.nwkResetDataConf
                0x00003f24        0xa ../BitCloud_ZIGBIT_1_7_0/BitCloud/Components/../lib\libBc_All_ZigBit_Atmega1281_Rf230_8Mhz_Gcc.a(nwkDataReq.o)
                0x00003f24                nwkResetDataConf
 .text.nwkDataConfTaskHandler
                0x00003f2e       0x46 ../BitCloud_ZIGBIT_1_7_0/BitCloud/Components/../lib\libBc_All_ZigBit_Atmega1281_Rf230_8Mhz_Gcc.a(nwkDataReq.o)
                0x00003f2e                nwkDataConfTaskHandler
 .text.nwkDataConf
                0x00003f74       0x22 ../BitCloud_ZIGBIT_1_7_0/BitCloud/Components/../lib\libBc_All_ZigBit_Atmega1281_Rf230_8Mhz_Gcc.a(nwkDataReq.o)
                0x00003f74                nwkDataConf
 .text.NWK_DataReq
                0x00003f96      0x118 ../BitCloud_ZIGBIT_1_7_0/BitCloud/Components/../lib\libBc_All_ZigBit_Atmega1281_Rf230_8Mhz_Gcc.a(nwkDataReq.o)
                0x00003f96                NWK_DataReq
 .text.nwkParseHeader
                0x000040ae       0xd2 ../BitCloud_ZIGBIT_1_7_0/BitCloud/Components/../lib\libBc_All_ZigBit_Atmega1281_Rf230_8Mhz_Gcc.a(nwkFrame.o)
                0x000040ae                nwkParseHeader
 .text.nwkPrepareCommonFrame
                0x00004180       0x4e ../BitCloud_ZIGBIT_1_7_0/BitCloud/Components/../lib\libBc_All_ZigBit_Atmega1281_Rf230_8Mhz_Gcc.a(nwkFrame.o)
                0x00004180                nwkPrepareCommonFrame
 .text.nwkClearNeighborTable
                0x000041ce       0x9e ../BitCloud_ZIGBIT_1_7_0/BitCloud/Components/../lib\libBc_All_ZigBit_Atmega1281_Rf230_8Mhz_Gcc.a(nwkNeighborTable.o)
                0x000041ce                nwkClearNeighborTable
 .text.NWK_FindNeighborByShortAddr
                0x0000426c       0x3a ../BitCloud_ZIGBIT_1_7_0/BitCloud/Components/../lib\libBc_All_ZigBit_Atmega1281_Rf230_8Mhz_Gcc.a(nwkNeighborTable.o)
                0x0000426c                NWK_FindNeighborByShortAddr
 .text.NWK_FindNeighborByExtAddr
                0x000042a6       0x6c ../BitCloud_ZIGBIT_1_7_0/BitCloud/Components/../lib\libBc_All_ZigBit_Atmega1281_Rf230_8Mhz_Gcc.a(nwkNeighborTable.o)
                0x000042a6                NWK_FindNeighborByExtAddr
 .text.nwkFindRxOffWhenIdleChild
                0x00004312       0x56 ../BitCloud_ZIGBIT_1_7_0/BitCloud/Components/../lib\libBc_All_ZigBit_Atmega1281_Rf230_8Mhz_Gcc.a(nwkNeighborTable.o)
                0x00004312                nwkFindRxOffWhenIdleChild
 .text.nwkUpdateCapacityBits
                0x00004368       0x7c ../BitCloud_ZIGBIT_1_7_0/BitCloud/Components/../lib\libBc_All_ZigBit_Atmega1281_Rf230_8Mhz_Gcc.a(nwkNeighborTable.o)
                0x00004368                nwkUpdateCapacityBits
 .text.nwkUpdateCapacityBitsInBeacon
                0x000043e4       0xb6 ../BitCloud_ZIGBIT_1_7_0/BitCloud/Components/../lib\libBc_All_ZigBit_Atmega1281_Rf230_8Mhz_Gcc.a(nwkNeighborTable.o)
                0x000043e4                nwkUpdateCapacityBitsInBeacon
 .text.nwkUpdateLqiAndCostOfNeighbor
                0x0000449a       0x7c ../BitCloud_ZIGBIT_1_7_0/BitCloud/Components/../lib\libBc_All_ZigBit_Atmega1281_Rf230_8Mhz_Gcc.a(nwkNeighborTable.o)
                0x0000449a                nwkUpdateLqiAndCostOfNeighbor
 .text.nwkFreeNeighbor
                0x00004516       0x2a ../BitCloud_ZIGBIT_1_7_0/BitCloud/Components/../lib\libBc_All_ZigBit_Atmega1281_Rf230_8Mhz_Gcc.a(nwkNeighborTable.o)
                0x00004516                nwkFreeNeighbor
 .text.nwkCostFromLqi
                0x00004540       0x1c ../BitCloud_ZIGBIT_1_7_0/BitCloud/Components/../lib\libBc_All_ZigBit_Atmega1281_Rf230_8Mhz_Gcc.a(nwkNeighborTable.o)
                0x00004540                nwkCostFromLqi
 .text.NWK_GetNeighborTable
                0x0000455c        0x6 ../BitCloud_ZIGBIT_1_7_0/BitCloud/Components/../lib\libBc_All_ZigBit_Atmega1281_Rf230_8Mhz_Gcc.a(nwkNeighborTable.o)
                0x0000455c                NWK_GetNeighborTable
 .text.NWK_GetNeighborsLqi
                0x00004562       0x3e ../BitCloud_ZIGBIT_1_7_0/BitCloud/Components/../lib\libBc_All_ZigBit_Atmega1281_Rf230_8Mhz_Gcc.a(nwkNeighborTable.o)
                0x00004562                NWK_GetNeighborsLqi
 .text.nwkSetLifeTimeOfNeighbor
                0x000045a0       0xd2 ../BitCloud_ZIGBIT_1_7_0/BitCloud/Components/../lib\libBc_All_ZigBit_Atmega1281_Rf230_8Mhz_Gcc.a(nwkNeighborTable.o)
                0x000045a0                nwkSetLifeTimeOfNeighbor
 .text.nwkUpdateLqiAndLifeTime
                0x00004672       0x4e ../BitCloud_ZIGBIT_1_7_0/BitCloud/Components/../lib\libBc_All_ZigBit_Atmega1281_Rf230_8Mhz_Gcc.a(nwkNeighborTable.o)
                0x00004672                nwkUpdateLqiAndLifeTime
 .text.nwkIsRouteDestination
                0x000046c0       0x6e ../BitCloud_ZIGBIT_1_7_0/BitCloud/Components/../lib\libBc_All_ZigBit_Atmega1281_Rf230_8Mhz_Gcc.a(nwkNeighborTable.o)
                0x000046c0                nwkIsRouteDestination
 .text.nwkStartAgeTimerOfNeighborTable
                0x0000472e       0x32 ../BitCloud_ZIGBIT_1_7_0/BitCloud/Components/../lib\libBc_All_ZigBit_Atmega1281_Rf230_8Mhz_Gcc.a(nwkNeighborTable.o)
                0x0000472e                nwkStartAgeTimerOfNeighborTable
 .text.neighborTimerFired
                0x00004760       0x9c ../BitCloud_ZIGBIT_1_7_0/BitCloud/Components/../lib\libBc_All_ZigBit_Atmega1281_Rf230_8Mhz_Gcc.a(nwkNeighborTable.o)
 .text.nwkResetNeighborTable
                0x000047fc       0x76 ../BitCloud_ZIGBIT_1_7_0/BitCloud/Components/../lib\libBc_All_ZigBit_Atmega1281_Rf230_8Mhz_Gcc.a(nwkNeighborTable.o)
                0x000047fc                nwkResetNeighborTable
 .text.nwkResetTaskHandler
                0x00004872       0xae ../BitCloud_ZIGBIT_1_7_0/BitCloud/Components/../lib\libBc_All_ZigBit_Atmega1281_Rf230_8Mhz_Gcc.a(nwkReset.o)
                0x00004872                nwkResetTaskHandler
 .text.nwkResetConf
                0x00004920       0x28 ../BitCloud_ZIGBIT_1_7_0/BitCloud/Components/../lib\libBc_All_ZigBit_Atmega1281_Rf230_8Mhz_Gcc.a(nwkReset.o)
 .text.MAC_ResetConf
                0x00004948       0xbc ../BitCloud_ZIGBIT_1_7_0/BitCloud/Components/../lib\libBc_All_ZigBit_Atmega1281_Rf230_8Mhz_Gcc.a(nwkReset.o)
 .text.MAC_RxEnableConf
                0x00004a04        0xe ../BitCloud_ZIGBIT_1_7_0/BitCloud/Components/../lib\libBc_All_ZigBit_Atmega1281_Rf230_8Mhz_Gcc.a(nwkReset.o)
 .text.MAC_SetConf
                0x00004a12      0x198 ../BitCloud_ZIGBIT_1_7_0/BitCloud/Components/../lib\libBc_All_ZigBit_Atmega1281_Rf230_8Mhz_Gcc.a(nwkReset.o)
 .text.MAC_StartConf
                0x00004baa       0x46 ../BitCloud_ZIGBIT_1_7_0/BitCloud/Components/../lib\libBc_All_ZigBit_Atmega1281_Rf230_8Mhz_Gcc.a(nwkReset.o)
 .text.NWK_Init
                0x00004bf0       0x22 ../BitCloud_ZIGBIT_1_7_0/BitCloud/Components/../lib\libBc_All_ZigBit_Atmega1281_Rf230_8Mhz_Gcc.a(nwkReset.o)
                0x00004bf0                NWK_Init
 .text.NWK_ResetReq
                0x00004c12       0x20 ../BitCloud_ZIGBIT_1_7_0/BitCloud/Components/../lib\libBc_All_ZigBit_Atmega1281_Rf230_8Mhz_Gcc.a(nwkReset.o)
                0x00004c12                NWK_ResetReq
 .text.nwkResetRouteDiscovery
                0x00004c32       0xa2 ../BitCloud_ZIGBIT_1_7_0/BitCloud/Components/../lib\libBc_All_ZigBit_Atmega1281_Rf230_8Mhz_Gcc.a(nwkRouteDiscovery.o)
                0x00004c32                nwkResetRouteDiscovery
 .text.nwkRouteReplyForThisNode
                0x00004cd4       0x5c ../BitCloud_ZIGBIT_1_7_0/BitCloud/Components/../lib\libBc_All_ZigBit_Atmega1281_Rf230_8Mhz_Gcc.a(nwkRouteDiscovery.o)
                0x00004cd4                nwkRouteReplyForThisNode
 .text.nwkRREQTimeoutTimerFired
                0x00004d30       0x90 ../BitCloud_ZIGBIT_1_7_0/BitCloud/Components/../lib\libBc_All_ZigBit_Atmega1281_Rf230_8Mhz_Gcc.a(nwkRouteDiscovery.o)
 .text.nwkRouteDiscoveryTaskHandler
                0x00004dc0      0x204 ../BitCloud_ZIGBIT_1_7_0/BitCloud/Components/../lib\libBc_All_ZigBit_Atmega1281_Rf230_8Mhz_Gcc.a(nwkRouteDiscovery.o)
                0x00004dc0                nwkRouteDiscoveryTaskHandler
 .text.nwkRouteDiscoveryTableTaskHandler
                0x00004fc4       0xee ../BitCloud_ZIGBIT_1_7_0/BitCloud/Components/../lib\libBc_All_ZigBit_Atmega1281_Rf230_8Mhz_Gcc.a(nwkRouteDiscovery.o)
                0x00004fc4                nwkRouteDiscoveryTableTaskHandler
 .text.NWK_RouteDiscoveryReq
                0x000050b2       0x12 ../BitCloud_ZIGBIT_1_7_0/BitCloud/Components/../lib\libBc_All_ZigBit_Atmega1281_Rf230_8Mhz_Gcc.a(nwkRouteDiscovery.o)
                0x000050b2                NWK_RouteDiscoveryReq
 .text.cmdRouteReplyPrepareMacReq
                0x000050c4       0x28 ../BitCloud_ZIGBIT_1_7_0/BitCloud/Components/../lib\libBc_All_ZigBit_Atmega1281_Rf230_8Mhz_Gcc.a(nwkRouteReply.o)
                0x000050c4                cmdRouteReplyPrepareMacReq
 .text.cmdRouteReplyConfirm
                0x000050ec       0x72 ../BitCloud_ZIGBIT_1_7_0/BitCloud/Components/../lib\libBc_All_ZigBit_Atmega1281_Rf230_8Mhz_Gcc.a(nwkRouteReply.o)
                0x000050ec                cmdRouteReplyConfirm
 .text.cmdRouteReplyPrepareMacData
                0x0000515e      0x3aa ../BitCloud_ZIGBIT_1_7_0/BitCloud/Components/../lib\libBc_All_ZigBit_Atmega1281_Rf230_8Mhz_Gcc.a(nwkRouteReply.o)
                0x0000515e                cmdRouteReplyPrepareMacData
 .text.nwkRouteReplyFrameInd
                0x00005508       0xd4 ../BitCloud_ZIGBIT_1_7_0/BitCloud/Components/../lib\libBc_All_ZigBit_Atmega1281_Rf230_8Mhz_Gcc.a(nwkRouteReply.o)
                0x00005508                nwkRouteReplyFrameInd
 .text.cmdRouteReqPrepareMacReq
                0x000055dc        0xa ../BitCloud_ZIGBIT_1_7_0/BitCloud/Components/../lib\libBc_All_ZigBit_Atmega1281_Rf230_8Mhz_Gcc.a(nwkRouteRequest.o)
                0x000055dc                cmdRouteReqPrepareMacReq
 .text.cmdRouteReqConfirm
                0x000055e6       0x20 ../BitCloud_ZIGBIT_1_7_0/BitCloud/Components/../lib\libBc_All_ZigBit_Atmega1281_Rf230_8Mhz_Gcc.a(nwkRouteRequest.o)
                0x000055e6                cmdRouteReqConfirm
 .text.cmdRouteReqPrepareMacData
                0x00005606      0x118 ../BitCloud_ZIGBIT_1_7_0/BitCloud/Components/../lib\libBc_All_ZigBit_Atmega1281_Rf230_8Mhz_Gcc.a(nwkRouteRequest.o)
                0x00005606                cmdRouteReqPrepareMacData
 .text.nwkRouteReqFrameInd
                0x0000571e      0x298 ../BitCloud_ZIGBIT_1_7_0/BitCloud/Components/../lib\libBc_All_ZigBit_Atmega1281_Rf230_8Mhz_Gcc.a(nwkRouteRequest.o)
                0x0000571e                nwkRouteReqFrameInd
 .text.nwkRouteRequestId
                0x000059b6        0xe ../BitCloud_ZIGBIT_1_7_0/BitCloud/Components/../lib\libBc_All_ZigBit_Atmega1281_Rf230_8Mhz_Gcc.a(nwkRouteTable.o)
                0x000059b6                nwkRouteRequestId
 .text.nwkFindRouteItemsByState
                0x000059c4       0x60 ../BitCloud_ZIGBIT_1_7_0/BitCloud/Components/../lib\libBc_All_ZigBit_Atmega1281_Rf230_8Mhz_Gcc.a(nwkRouteTable.o)
                0x000059c4                nwkFindRouteItemsByState
 .text.nwkRouteDiscoveryItemLink
                0x00005a24       0x26 ../BitCloud_ZIGBIT_1_7_0/BitCloud/Components/../lib\libBc_All_ZigBit_Atmega1281_Rf230_8Mhz_Gcc.a(nwkRouteTable.o)
                0x00005a24                nwkRouteDiscoveryItemLink
 .text.nwkRouteTableNextHopSuccess
                0x00005a4a       0x32 ../BitCloud_ZIGBIT_1_7_0/BitCloud/Components/../lib\libBc_All_ZigBit_Atmega1281_Rf230_8Mhz_Gcc.a(nwkRouteTable.o)
                0x00005a4a                nwkRouteTableNextHopSuccess
 .text.nwkRouteTableRemoveDest
                0x00005a7c       0x38 ../BitCloud_ZIGBIT_1_7_0/BitCloud/Components/../lib\libBc_All_ZigBit_Atmega1281_Rf230_8Mhz_Gcc.a(nwkRouteTable.o)
                0x00005a7c                nwkRouteTableRemoveDest
 .text.nwkRouteTableLinkCost
                0x00005ab4       0x6c ../BitCloud_ZIGBIT_1_7_0/BitCloud/Components/../lib\libBc_All_ZigBit_Atmega1281_Rf230_8Mhz_Gcc.a(nwkRouteTable.o)
                0x00005ab4                nwkRouteTableLinkCost
 .text.nwkRouteTableNextHopFail
                0x00005b20       0x7c ../BitCloud_ZIGBIT_1_7_0/BitCloud/Components/../lib\libBc_All_ZigBit_Atmega1281_Rf230_8Mhz_Gcc.a(nwkRouteTable.o)
                0x00005b20                nwkRouteTableNextHopFail
 .text.nwkOldestRouteDiscoveryItem
                0x00005b9c       0x1e ../BitCloud_ZIGBIT_1_7_0/BitCloud/Components/../lib\libBc_All_ZigBit_Atmega1281_Rf230_8Mhz_Gcc.a(nwkRouteTable.o)
                0x00005b9c                nwkOldestRouteDiscoveryItem
 .text.nwkUpdateAgeRouteDiscovery
                0x00005bba       0xde ../BitCloud_ZIGBIT_1_7_0/BitCloud/Components/../lib\libBc_All_ZigBit_Atmega1281_Rf230_8Mhz_Gcc.a(nwkRouteTable.o)
                0x00005bba                nwkUpdateAgeRouteDiscovery
 .text.nwkFindFreeRouteDiscoveryItem
                0x00005c98       0x40 ../BitCloud_ZIGBIT_1_7_0/BitCloud/Components/../lib\libBc_All_ZigBit_Atmega1281_Rf230_8Mhz_Gcc.a(nwkRouteTable.o)
                0x00005c98                nwkFindFreeRouteDiscoveryItem
 .text.nwkFindFreeRouteItem
                0x00005cd8       0x52 ../BitCloud_ZIGBIT_1_7_0/BitCloud/Components/../lib\libBc_All_ZigBit_Atmega1281_Rf230_8Mhz_Gcc.a(nwkRouteTable.o)
                0x00005cd8                nwkFindFreeRouteItem
 .text.nwkFindRouteDiscoveryItem
                0x00005d2a       0x7c ../BitCloud_ZIGBIT_1_7_0/BitCloud/Components/../lib\libBc_All_ZigBit_Atmega1281_Rf230_8Mhz_Gcc.a(nwkRouteTable.o)
                0x00005d2a                nwkFindRouteDiscoveryItem
 .text.nwkFindRouteItem
                0x00005da6       0x66 ../BitCloud_ZIGBIT_1_7_0/BitCloud/Components/../lib\libBc_All_ZigBit_Atmega1281_Rf230_8Mhz_Gcc.a(nwkRouteTable.o)
                0x00005da6                nwkFindRouteItem
 .text.nwkUpdateRouteTable
                0x00005e0c       0x6a ../BitCloud_ZIGBIT_1_7_0/BitCloud/Components/../lib\libBc_All_ZigBit_Atmega1281_Rf230_8Mhz_Gcc.a(nwkRouteTable.o)
                0x00005e0c                nwkUpdateRouteTable
 .text.resetRouteTables
                0x00005e76       0xd2 ../BitCloud_ZIGBIT_1_7_0/BitCloud/Components/../lib\libBc_All_ZigBit_Atmega1281_Rf230_8Mhz_Gcc.a(nwkRouteTable.o)
                0x00005e76                resetRouteTables
 .text.nwkResetStartRouter
                0x00005f48       0x14 ../BitCloud_ZIGBIT_1_7_0/BitCloud/Components/../lib\libBc_All_ZigBit_Atmega1281_Rf230_8Mhz_Gcc.a(nwkStartRouter.o)
                0x00005f48                nwkResetStartRouter
 .text.nwkStartRouterTaskHandler
                0x00005f5c       0xce ../BitCloud_ZIGBIT_1_7_0/BitCloud/Components/../lib\libBc_All_ZigBit_Atmega1281_Rf230_8Mhz_Gcc.a(nwkStartRouter.o)
                0x00005f5c                nwkStartRouterTaskHandler
 .text.MAC_StartConf
                0x0000602a       0x28 ../BitCloud_ZIGBIT_1_7_0/BitCloud/Components/../lib\libBc_All_ZigBit_Atmega1281_Rf230_8Mhz_Gcc.a(nwkStartRouter.o)
 .text.NWK_StartRouterReq
                0x00006052       0x20 ../BitCloud_ZIGBIT_1_7_0/BitCloud/Components/../lib\libBc_All_ZigBit_Atmega1281_Rf230_8Mhz_Gcc.a(nwkStartRouter.o)
                0x00006052                NWK_StartRouterReq
 .text.nwkAddrConflictConf
                0x00006072        0x8 ../BitCloud_ZIGBIT_1_7_0/BitCloud/Components/../lib\libBc_All_ZigBit_Atmega1281_Rf230_8Mhz_Gcc.a(nwkStatusInd.o)
 .text.nwkStatusLinkSuccess
                0x0000607a       0x38 ../BitCloud_ZIGBIT_1_7_0/BitCloud/Components/../lib\libBc_All_ZigBit_Atmega1281_Rf230_8Mhz_Gcc.a(nwkStatusInd.o)
                0x0000607a                nwkStatusLinkSuccess
 .text.nwkStatusLinkFailure
                0x000060b2       0x3a ../BitCloud_ZIGBIT_1_7_0/BitCloud/Components/../lib\libBc_All_ZigBit_Atmega1281_Rf230_8Mhz_Gcc.a(nwkStatusInd.o)
                0x000060b2                nwkStatusLinkFailure
 .text.nwkResetStatusReceiver
                0x000060ec       0x16 ../BitCloud_ZIGBIT_1_7_0/BitCloud/Components/../lib\libBc_All_ZigBit_Atmega1281_Rf230_8Mhz_Gcc.a(nwkStatusInd.o)
                0x000060ec                nwkResetStatusReceiver
 .text.nwkStatusFrameInd
                0x00006102       0x6c ../BitCloud_ZIGBIT_1_7_0/BitCloud/Components/../lib\libBc_All_ZigBit_Atmega1281_Rf230_8Mhz_Gcc.a(nwkStatusInd.o)
                0x00006102                nwkStatusFrameInd
 .text.nwkPrepareMacReqOfStatusCmd
                0x0000616e       0x10 ../BitCloud_ZIGBIT_1_7_0/BitCloud/Components/../lib\libBc_All_ZigBit_Atmega1281_Rf230_8Mhz_Gcc.a(nwkStatusReq.o)
 .text.nwkSendRouteErrorConf
                0x0000617e        0x6 ../BitCloud_ZIGBIT_1_7_0/BitCloud/Components/../lib\libBc_All_ZigBit_Atmega1281_Rf230_8Mhz_Gcc.a(nwkStatusReq.o)
 .text.nwkResetStatusSender
                0x00006184       0x4c ../BitCloud_ZIGBIT_1_7_0/BitCloud/Components/../lib\libBc_All_ZigBit_Atmega1281_Rf230_8Mhz_Gcc.a(nwkStatusReq.o)
                0x00006184                nwkResetStatusSender
 .text.nwkConfirmOfStatusCmd
                0x000061d0       0x5a ../BitCloud_ZIGBIT_1_7_0/BitCloud/Components/../lib\libBc_All_ZigBit_Atmega1281_Rf230_8Mhz_Gcc.a(nwkStatusReq.o)
 .text.nwkPrepareMacDataOfStatusCmd
                0x0000622a      0x122 ../BitCloud_ZIGBIT_1_7_0/BitCloud/Components/../lib\libBc_All_ZigBit_Atmega1281_Rf230_8Mhz_Gcc.a(nwkStatusReq.o)
 .text.nwkStatusReq
                0x0000634c       0x22 ../BitCloud_ZIGBIT_1_7_0/BitCloud/Components/../lib\libBc_All_ZigBit_Atmega1281_Rf230_8Mhz_Gcc.a(nwkStatusReq.o)
                0x0000634c                nwkStatusReq
 .text.nwkSendRouteErrorStatus
                0x0000636e       0x52 ../BitCloud_ZIGBIT_1_7_0/BitCloud/Components/../lib\libBc_All_ZigBit_Atmega1281_Rf230_8Mhz_Gcc.a(nwkStatusReq.o)
                0x0000636e                nwkSendRouteErrorStatus
 .text.MAC_PollInd
                0x000063c0       0x4c ../BitCloud_ZIGBIT_1_7_0/BitCloud/Components/../lib\libBc_All_ZigBit_Atmega1281_Rf230_8Mhz_Gcc.a(nwkSync.o)
                0x000063c0                MAC_PollInd
 .text.nwkResetSync
                0x0000640c       0x26 ../BitCloud_ZIGBIT_1_7_0/BitCloud/Components/../lib\libBc_All_ZigBit_Atmega1281_Rf230_8Mhz_Gcc.a(nwkSync.o)
                0x0000640c                nwkResetSync
 .text.MAC_PollConf
                0x00006432       0x6a ../BitCloud_ZIGBIT_1_7_0/BitCloud/Components/../lib\libBc_All_ZigBit_Atmega1281_Rf230_8Mhz_Gcc.a(nwkSync.o)
 .text.nwkSyncTaskHandler
                0x0000649c       0xc0 ../BitCloud_ZIGBIT_1_7_0/BitCloud/Components/../lib\libBc_All_ZigBit_Atmega1281_Rf230_8Mhz_Gcc.a(nwkSync.o)
                0x0000649c                nwkSyncTaskHandler
 .text.NWK_SyncReq
                0x0000655c       0x20 ../BitCloud_ZIGBIT_1_7_0/BitCloud/Components/../lib\libBc_All_ZigBit_Atmega1281_Rf230_8Mhz_Gcc.a(nwkSync.o)
                0x0000655c                NWK_SyncReq
 .text.nwkPostTask
                0x0000657c       0x44 ../BitCloud_ZIGBIT_1_7_0/BitCloud/Components/../lib\libBc_All_ZigBit_Atmega1281_Rf230_8Mhz_Gcc.a(nwkTaskManager.o)
                0x0000657c                nwkPostTask
 .text.nwkResetTaskManager
                0x000065c0       0x1a ../BitCloud_ZIGBIT_1_7_0/BitCloud/Components/../lib\libBc_All_ZigBit_Atmega1281_Rf230_8Mhz_Gcc.a(nwkTaskManager.o)
                0x000065c0                nwkResetTaskManager
 .text.NWK_TaskHandler
                0x000065da       0xb0 ../BitCloud_ZIGBIT_1_7_0/BitCloud/Components/../lib\libBc_All_ZigBit_Atmega1281_Rf230_8Mhz_Gcc.a(nwkTaskManager.o)
                0x000065da                NWK_TaskHandler
 .text.nwkDataReqFlushConfirms
                0x0000668a       0x3c ../BitCloud_ZIGBIT_1_7_0/BitCloud/Components/../lib\libBc_All_ZigBit_Atmega1281_Rf230_8Mhz_Gcc.a(nwkTx.o)
                0x0000668a                nwkDataReqFlushConfirms
 .text.delayTimerFired
                0x000066c6       0x3e ../BitCloud_ZIGBIT_1_7_0/BitCloud/Components/../lib\libBc_All_ZigBit_Atmega1281_Rf230_8Mhz_Gcc.a(nwkTx.o)
 .text.MAC_DataConf
                0x00006704       0x62 ../BitCloud_ZIGBIT_1_7_0/BitCloud/Components/../lib\libBc_All_ZigBit_Atmega1281_Rf230_8Mhz_Gcc.a(nwkTx.o)
 .text.nwkTxGetNextHop
                0x00006766       0x80 ../BitCloud_ZIGBIT_1_7_0/BitCloud/Components/../lib\libBc_All_ZigBit_Atmega1281_Rf230_8Mhz_Gcc.a(nwkTx.o)
 .text.NWK_RouteDiscoveryConf
                0x000067e6       0x3a ../BitCloud_ZIGBIT_1_7_0/BitCloud/Components/../lib\libBc_All_ZigBit_Atmega1281_Rf230_8Mhz_Gcc.a(nwkTx.o)
 .text.nwkDataReqTaskHandler
                0x00006820      0x382 ../BitCloud_ZIGBIT_1_7_0/BitCloud/Components/../lib\libBc_All_ZigBit_Atmega1281_Rf230_8Mhz_Gcc.a(nwkTx.o)
                0x00006820                nwkDataReqTaskHandler
 .text.nwkTxCommandReq
                0x00006ba2       0x12 ../BitCloud_ZIGBIT_1_7_0/BitCloud/Components/../lib\libBc_All_ZigBit_Atmega1281_Rf230_8Mhz_Gcc.a(nwkTx.o)
                0x00006ba2                nwkTxCommandReq
 .text.nwkTxTransitReq
                0x00006bb4       0x12 ../BitCloud_ZIGBIT_1_7_0/BitCloud/Components/../lib\libBc_All_ZigBit_Atmega1281_Rf230_8Mhz_Gcc.a(nwkTx.o)
                0x00006bb4                nwkTxTransitReq
 .text.nwkTxReq
                0x00006bc6       0x12 ../BitCloud_ZIGBIT_1_7_0/BitCloud/Components/../lib\libBc_All_ZigBit_Atmega1281_Rf230_8Mhz_Gcc.a(nwkTx.o)
                0x00006bc6                nwkTxReq
 .text.nwkResetDataReq
                0x00006bd8       0x8a ../BitCloud_ZIGBIT_1_7_0/BitCloud/Components/../lib\libBc_All_ZigBit_Atmega1281_Rf230_8Mhz_Gcc.a(nwkTx.o)
                0x00006bd8                nwkResetDataReq
 .text.phySetFreq
                0x00006c62       0x66 ../BitCloud_ZIGBIT_1_7_0/BitCloud/Components/../lib\libBc_All_ZigBit_Atmega1281_Rf230_8Mhz_Gcc.a(phyInit.o)
                0x00006c62                phySetFreq
 .text.RF_Init  0x00006cc8       0x58 ../BitCloud_ZIGBIT_1_7_0/BitCloud/Components/../lib\libBc_All_ZigBit_Atmega1281_Rf230_8Mhz_Gcc.a(phyInit.o)
                0x00006cc8                RF_Init
 .text.phyWriteFrame
                0x00006d20       0x2a ../BitCloud_ZIGBIT_1_7_0/BitCloud/Components/../lib\libBc_All_ZigBit_Atmega1281_Rf230_8Mhz_Gcc.a(phyRfSpiProto.o)
                0x00006d20                phyWriteFrame
 .text.phyReadFrame
                0x00006d4a       0x22 ../BitCloud_ZIGBIT_1_7_0/BitCloud/Components/../lib\libBc_All_ZigBit_Atmega1281_Rf230_8Mhz_Gcc.a(phyRfSpiProto.o)
                0x00006d4a                phyReadFrame
 .text.phyReadRegister
                0x00006d6c       0x1c ../BitCloud_ZIGBIT_1_7_0/BitCloud/Components/../lib\libBc_All_ZigBit_Atmega1281_Rf230_8Mhz_Gcc.a(phyRfSpiProto.o)
                0x00006d6c                phyReadRegister
 .text.phyWriteRegister
                0x00006d88       0x18 ../BitCloud_ZIGBIT_1_7_0/BitCloud/Components/../lib\libBc_All_ZigBit_Atmega1281_Rf230_8Mhz_Gcc.a(phyRfSpiProto.o)
                0x00006d88                phyWriteRegister
 .text.resetQueue
                0x00006da0        0xc ../BitCloud_ZIGBIT_1_7_0/BitCloud/Components/../lib\libBc_All_ZigBit_Atmega1281_Rf230_8Mhz_Gcc.a(queue.o)
                0x00006da0                resetQueue
 .text.putQueueElem
                0x00006dac       0x1e ../BitCloud_ZIGBIT_1_7_0/BitCloud/Components/../lib\libBc_All_ZigBit_Atmega1281_Rf230_8Mhz_Gcc.a(queue.o)
                0x00006dac                putQueueElem
 .text.getQueueElem
                0x00006dca        0x8 ../BitCloud_ZIGBIT_1_7_0/BitCloud/Components/../lib\libBc_All_ZigBit_Atmega1281_Rf230_8Mhz_Gcc.a(queue.o)
                0x00006dca                getQueueElem
 .text.getNextQueueElement
                0x00006dd2        0x8 ../BitCloud_ZIGBIT_1_7_0/BitCloud/Components/../lib\libBc_All_ZigBit_Atmega1281_Rf230_8Mhz_Gcc.a(queue.o)
                0x00006dd2                getNextQueueElement
 .text.deleteHeadQueueElem
                0x00006dda       0x2a ../BitCloud_ZIGBIT_1_7_0/BitCloud/Components/../lib\libBc_All_ZigBit_Atmega1281_Rf230_8Mhz_Gcc.a(queue.o)
                0x00006dda                deleteHeadQueueElem
 .text.deleteQueueElem
                0x00006e04       0x5a ../BitCloud_ZIGBIT_1_7_0/BitCloud/Components/../lib\libBc_All_ZigBit_Atmega1281_Rf230_8Mhz_Gcc.a(queue.o)
                0x00006e04                deleteQueueElem
 .text.getNextQueueElem
                0x00006e5e       0x14 ../BitCloud_ZIGBIT_1_7_0/BitCloud/Components/../lib\libBc_All_ZigBit_Atmega1281_Rf230_8Mhz_Gcc.a(queue.o)
                0x00006e5e                getNextQueueElem
 .text.SYS_RunTask
                0x00006e72       0x74 ../BitCloud_ZIGBIT_1_7_0/BitCloud/Components/../lib\libBc_All_ZigBit_Atmega1281_Rf230_8Mhz_Gcc.a(taskManager.o)
                0x00006e72                SYS_RunTask
 .text.SYS_ForceRunTask
                0x00006ee6        0x6 ../BitCloud_ZIGBIT_1_7_0/BitCloud/Components/../lib\libBc_All_ZigBit_Atmega1281_Rf230_8Mhz_Gcc.a(taskManager.o)
                0x00006ee6                SYS_ForceRunTask
 .text.zdoNwkManagerReset
                0x00006eec        0x6 ../BitCloud_ZIGBIT_1_7_0/BitCloud/Components/../lib\libBc_All_ZigBit_Atmega1281_Rf230_8Mhz_Gcc.a(zdoNwkManager.o)
                0x00006eec                zdoNwkManagerReset
 .text.zdoSendDeviceAnnce
                0x00006ef2       0x8c ../BitCloud_ZIGBIT_1_7_0/BitCloud/Components/../lib\libBc_All_ZigBit_Atmega1281_Rf230_8Mhz_Gcc.a(zdoNwkManager.o)
                0x00006ef2                zdoSendDeviceAnnce
 .text.NWK_LeaveInd
                0x00006f7e       0x7a ../BitCloud_ZIGBIT_1_7_0/BitCloud/Components/../lib\libBc_All_ZigBit_Atmega1281_Rf230_8Mhz_Gcc.a(zdoNwkManager.o)
                0x00006f7e                NWK_LeaveInd
 .text.NWK_JoinInd
                0x00006ff8       0x4a ../BitCloud_ZIGBIT_1_7_0/BitCloud/Components/../lib\libBc_All_ZigBit_Atmega1281_Rf230_8Mhz_Gcc.a(zdoNwkManager.o)
                0x00006ff8                NWK_JoinInd
 .text.NWK_NwkStatusInd
                0x00007042       0xfe ../BitCloud_ZIGBIT_1_7_0/BitCloud/Components/../lib\libBc_All_ZigBit_Atmega1281_Rf230_8Mhz_Gcc.a(zdoNwkManager.o)
                0x00007042                NWK_NwkStatusInd
 .text.RF_RandomConf
                0x00007140        0xe ../BitCloud_ZIGBIT_1_7_0/BitCloud/Components/../lib\libBc_All_ZigBit_Atmega1281_Rf230_8Mhz_Gcc.a(zdoStateMachines.o)
 .text.NWK_NetworkFormationConf
                0x0000714e       0x26 ../BitCloud_ZIGBIT_1_7_0/BitCloud/Components/../lib\libBc_All_ZigBit_Atmega1281_Rf230_8Mhz_Gcc.a(zdoStateMachines.o)
 .text.NWK_PermitJoinConf
                0x00007174       0x2a ../BitCloud_ZIGBIT_1_7_0/BitCloud/Components/../lib\libBc_All_ZigBit_Atmega1281_Rf230_8Mhz_Gcc.a(zdoStateMachines.o)
 .text.NWK_StartRouterConf
                0x0000719e       0x1e ../BitCloud_ZIGBIT_1_7_0/BitCloud/Components/../lib\libBc_All_ZigBit_Atmega1281_Rf230_8Mhz_Gcc.a(zdoStateMachines.o)
 .text.APS_StartConf
                0x000071bc       0x1e ../BitCloud_ZIGBIT_1_7_0/BitCloud/Components/../lib\libBc_All_ZigBit_Atmega1281_Rf230_8Mhz_Gcc.a(zdoStateMachines.o)
 .text.zdoAuthenticationConf
                0x000071da       0x28 ../BitCloud_ZIGBIT_1_7_0/BitCloud/Components/../lib\libBc_All_ZigBit_Atmega1281_Rf230_8Mhz_Gcc.a(zdoStateMachines.o)
                0x000071da                zdoAuthenticationConf
 .text.ZDO_StartNetworkReq
                0x00007202       0x1e ../BitCloud_ZIGBIT_1_7_0/BitCloud/Components/../lib\libBc_All_ZigBit_Atmega1281_Rf230_8Mhz_Gcc.a(zdoStateMachines.o)
                0x00007202                ZDO_StartNetworkReq
 .text.timerFired
                0x00007220        0x8 ../BitCloud_ZIGBIT_1_7_0/BitCloud/Components/../lib\libBc_All_ZigBit_Atmega1281_Rf230_8Mhz_Gcc.a(zdoStateMachines.o)
 .text.APS_StopConf
                0x00007228        0x8 ../BitCloud_ZIGBIT_1_7_0/BitCloud/Components/../lib\libBc_All_ZigBit_Atmega1281_Rf230_8Mhz_Gcc.a(zdoStateMachines.o)
 .text.setNetworkParametersToZib
                0x00007230       0x46 ../BitCloud_ZIGBIT_1_7_0/BitCloud/Components/../lib\libBc_All_ZigBit_Atmega1281_Rf230_8Mhz_Gcc.a(zdoStateMachines.o)
 .text.startTimer
                0x00007276       0x3c ../BitCloud_ZIGBIT_1_7_0/BitCloud/Components/../lib\libBc_All_ZigBit_Atmega1281_Rf230_8Mhz_Gcc.a(zdoStateMachines.o)
 .text.NWK_JoinConf
                0x000072b2       0x66 ../BitCloud_ZIGBIT_1_7_0/BitCloud/Components/../lib\libBc_All_ZigBit_Atmega1281_Rf230_8Mhz_Gcc.a(zdoStateMachines.o)
 .text.NWK_NetworkDiscoveryConf
                0x00007318       0x96 ../BitCloud_ZIGBIT_1_7_0/BitCloud/Components/../lib\libBc_All_ZigBit_Atmega1281_Rf230_8Mhz_Gcc.a(zdoStateMachines.o)
 .text.zdoReset
                0x000073ae       0x5c ../BitCloud_ZIGBIT_1_7_0/BitCloud/Components/../lib\libBc_All_ZigBit_Atmega1281_Rf230_8Mhz_Gcc.a(zdoStateMachines.o)
 .text.APS_ResetConf
                0x0000740a       0x9c ../BitCloud_ZIGBIT_1_7_0/BitCloud/Components/../lib\libBc_All_ZigBit_Atmega1281_Rf230_8Mhz_Gcc.a(zdoStateMachines.o)
 .text.APS_ResetConfReset
                0x000074a6       0x2e ../BitCloud_ZIGBIT_1_7_0/BitCloud/Components/../lib\libBc_All_ZigBit_Atmega1281_Rf230_8Mhz_Gcc.a(zdoStateMachines.o)
 .text.deviceAnnceConf
                0x000074d4       0x98 ../BitCloud_ZIGBIT_1_7_0/BitCloud/Components/../lib\libBc_All_ZigBit_Atmega1281_Rf230_8Mhz_Gcc.a(zdoStateMachines.o)
 .text.zdoStateMachineHandler
                0x0000756c      0x574 ../BitCloud_ZIGBIT_1_7_0/BitCloud/Components/../lib\libBc_All_ZigBit_Atmega1281_Rf230_8Mhz_Gcc.a(zdoStateMachines.o)
                0x0000756c                zdoStateMachineHandler
 .text.zdoStateMachineLeave
                0x00007ae0       0xa4 ../BitCloud_ZIGBIT_1_7_0/BitCloud/Components/../lib\libBc_All_ZigBit_Atmega1281_Rf230_8Mhz_Gcc.a(zdoStateMachines.o)
                0x00007ae0                zdoStateMachineLeave
 .text.zdoPostTask
                0x00007b84       0x3c ../BitCloud_ZIGBIT_1_7_0/BitCloud/Components/../lib\libBc_All_ZigBit_Atmega1281_Rf230_8Mhz_Gcc.a(zdoTaskManager.o)
                0x00007b84                zdoPostTask
 .text.ZDO_TaskHandler
                0x00007bc0       0x7a ../BitCloud_ZIGBIT_1_7_0/BitCloud/Components/../lib\libBc_All_ZigBit_Atmega1281_Rf230_8Mhz_Gcc.a(zdoTaskManager.o)
                0x00007bc0                ZDO_TaskHandler
 .text.zdoZdpFrameProcessorReset
                0x00007c3a       0x36 ../BitCloud_ZIGBIT_1_7_0/BitCloud/Components/../lib\libBc_All_ZigBit_Atmega1281_Rf230_8Mhz_Gcc.a(zdoZdpFrameProcessor.o)
                0x00007c3a                zdoZdpFrameProcessorReset
 .text.zdoSetZdpIndState
                0x00007c70       0x10 ../BitCloud_ZIGBIT_1_7_0/BitCloud/Components/../lib\libBc_All_ZigBit_Atmega1281_Rf230_8Mhz_Gcc.a(zdoZdpFrameProcessor.o)
                0x00007c70                zdoSetZdpIndState
 .text.zdoZdpSendRequest
                0x00007c80       0x10 ../BitCloud_ZIGBIT_1_7_0/BitCloud/Components/../lib\libBc_All_ZigBit_Atmega1281_Rf230_8Mhz_Gcc.a(zdoZdpFrameProcessor.o)
                0x00007c80                zdoZdpSendRequest
 .text.zdoSetZdpDataReqState
                0x00007c90       0x22 ../BitCloud_ZIGBIT_1_7_0/BitCloud/Components/../lib\libBc_All_ZigBit_Atmega1281_Rf230_8Mhz_Gcc.a(zdoZdpFrameProcessor.o)
                0x00007c90                zdoSetZdpDataReqState
 .text.zdoZdpApsConfCallback
                0x00007cb2       0x50 ../BitCloud_ZIGBIT_1_7_0/BitCloud/Components/../lib\libBc_All_ZigBit_Atmega1281_Rf230_8Mhz_Gcc.a(zdoZdpFrameProcessor.o)
                0x00007cb2                zdoZdpApsConfCallback
 .text.APS_ZdoDataInd
                0x00007d02      0x13a ../BitCloud_ZIGBIT_1_7_0/BitCloud/Components/../lib\libBc_All_ZigBit_Atmega1281_Rf230_8Mhz_Gcc.a(zdoZdpFrameProcessor.o)
                0x00007d02                APS_ZdoDataInd
 .text.zdoZdpPrepareResponse
                0x00007e3c       0x34 ../BitCloud_ZIGBIT_1_7_0/BitCloud/Components/../lib\libBc_All_ZigBit_Atmega1281_Rf230_8Mhz_Gcc.a(zdoZdpFrameProcessor.o)
                0x00007e3c                zdoZdpPrepareResponse
 .text.zdoZdpFrameProcessorHandler
                0x00007e70      0x156 ../BitCloud_ZIGBIT_1_7_0/BitCloud/Components/../lib\libBc_All_ZigBit_Atmega1281_Rf230_8Mhz_Gcc.a(zdoZdpFrameProcessor.o)
                0x00007e70                zdoZdpFrameProcessorHandler
 .text.zdoZdpManagerHandler
                0x00007fc6      0x11e ../BitCloud_ZIGBIT_1_7_0/BitCloud/Components/../lib\libBc_All_ZigBit_Atmega1281_Rf230_8Mhz_Gcc.a(zdoZdpManager.o)
                0x00007fc6                zdoZdpManagerHandler
 .text.ttlUpdateTimerFired
                0x000080e4       0x6c ../BitCloud_ZIGBIT_1_7_0/BitCloud/Components/../lib\libBc_All_ZigBit_Atmega1281_Rf230_8Mhz_Gcc.a(zdoZdpManager.o)
 .text.ZDO_ZdpReq
                0x00008150       0x7c ../BitCloud_ZIGBIT_1_7_0/BitCloud/Components/../lib\libBc_All_ZigBit_Atmega1281_Rf230_8Mhz_Gcc.a(zdoZdpManager.o)
                0x00008150                ZDO_ZdpReq
 .text.zdoZdpResetReq
                0x000081cc       0x50 ../BitCloud_ZIGBIT_1_7_0/BitCloud/Components/../lib\libBc_All_ZigBit_Atmega1281_Rf230_8Mhz_Gcc.a(zdoZdpManager.o)
                0x000081cc                zdoZdpResetReq
 .text.zdoInitZIB
                0x0000821c      0x10a ../BitCloud_ZIGBIT_1_7_0/BitCloud/Components/../lib\libBc_All_ZigBit_Atmega1281_Rf230_8Mhz_Gcc.a(zib.o)
                0x0000821c                zdoInitZIB
 .text.apsAIBManagerProcess
                0x00008326        0x2 ../BitCloud_ZIGBIT_1_7_0/BitCloud/Components/../lib\libBc_All_ZigBit_Atmega1281_Rf230_8Mhz_Gcc.a(apsAibManager.o)
                0x00008326                apsAIBManagerProcess
 .text.apsResetAibManager
                0x00008328       0x12 ../BitCloud_ZIGBIT_1_7_0/BitCloud/Components/../lib\libBc_All_ZigBit_Atmega1281_Rf230_8Mhz_Gcc.a(apsAibManager.o)
                0x00008328                apsResetAibManager
 .text.apsFindBindSrcEntry
                0x0000833a       0xc2 ../BitCloud_ZIGBIT_1_7_0/BitCloud/Components/../lib\libBc_All_ZigBit_Atmega1281_Rf230_8Mhz_Gcc.a(apsBindManager.o)
                0x0000833a                apsFindBindSrcEntry
 .text.apsGetNextBindDestEntryIndex
                0x000083fc       0x36 ../BitCloud_ZIGBIT_1_7_0/BitCloud/Components/../lib\libBc_All_ZigBit_Atmega1281_Rf230_8Mhz_Gcc.a(apsBindManager.o)
                0x000083fc                apsGetNextBindDestEntryIndex
 .text.apsResetBindManager
                0x00008432       0x68 ../BitCloud_ZIGBIT_1_7_0/BitCloud/Components/../lib\libBc_All_ZigBit_Atmega1281_Rf230_8Mhz_Gcc.a(apsBindManager.o)
                0x00008432                apsResetBindManager
 .text.APS_UnbindReq
                0x0000849a      0x134 ../BitCloud_ZIGBIT_1_7_0/BitCloud/Components/../lib\libBc_All_ZigBit_Atmega1281_Rf230_8Mhz_Gcc.a(apsBindManager.o)
                0x0000849a                APS_UnbindReq
 .text.APS_BindReq
                0x000085ce      0x1f8 ../BitCloud_ZIGBIT_1_7_0/BitCloud/Components/../lib\libBc_All_ZigBit_Atmega1281_Rf230_8Mhz_Gcc.a(apsBindManager.o)
                0x000085ce                APS_BindReq
 .text.MAC_PHY_HWD_TaskHandler
                0x000087c6      0x1f2 ../BitCloud_ZIGBIT_1_7_0/BitCloud/Components/../lib\libBc_All_ZigBit_Atmega1281_Rf230_8Mhz_Gcc.a(machwdManager.o)
                0x000087c6                MAC_PHY_HWD_TaskHandler
 .text.MACHWD_Reset
                0x000089b8       0x46 ../BitCloud_ZIGBIT_1_7_0/BitCloud/Components/../lib\libBc_All_ZigBit_Atmega1281_Rf230_8Mhz_Gcc.a(machwdManager.o)
                0x000089b8                MACHWD_Reset
 .text.putReqInQueue
                0x000089fe       0x58 ../BitCloud_ZIGBIT_1_7_0/BitCloud/Components/../lib\libBc_All_ZigBit_Atmega1281_Rf230_8Mhz_Gcc.a(machwdManager.o)
 .text.RF_RandomReq
                0x00008a56        0xe ../BitCloud_ZIGBIT_1_7_0/BitCloud/Components/../lib\libBc_All_ZigBit_Atmega1281_Rf230_8Mhz_Gcc.a(machwdManager.o)
                0x00008a56                RF_RandomReq
 .text.MACHWD_EdReq
                0x00008a64        0xe ../BitCloud_ZIGBIT_1_7_0/BitCloud/Components/../lib\libBc_All_ZigBit_Atmega1281_Rf230_8Mhz_Gcc.a(machwdManager.o)
                0x00008a64                MACHWD_EdReq
 .text.MACHWD_SetReq
                0x00008a72        0xe ../BitCloud_ZIGBIT_1_7_0/BitCloud/Components/../lib\libBc_All_ZigBit_Atmega1281_Rf230_8Mhz_Gcc.a(machwdManager.o)
                0x00008a72                MACHWD_SetReq
 .text.MACHWD_SetTrxStateReq
                0x00008a80        0xe ../BitCloud_ZIGBIT_1_7_0/BitCloud/Components/../lib\libBc_All_ZigBit_Atmega1281_Rf230_8Mhz_Gcc.a(machwdManager.o)
                0x00008a80                MACHWD_SetTrxStateReq
 .text.MACHWD_DataReq
                0x00008a8e        0xa ../BitCloud_ZIGBIT_1_7_0/BitCloud/Components/../lib\libBc_All_ZigBit_Atmega1281_Rf230_8Mhz_Gcc.a(machwdManager.o)
                0x00008a8e                MACHWD_DataReq
 .text.machwdReset
                0x00008a98       0xba ../BitCloud_ZIGBIT_1_7_0/BitCloud/Components/../lib\libBc_All_ZigBit_Atmega1281_Rf230_8Mhz_Gcc.a(machwdResetHandler.o)
                0x00008a98                machwdReset
 .text.machwdRndReqHandler
                0x00008b52       0x14 ../BitCloud_ZIGBIT_1_7_0/BitCloud/Components/../lib\libBc_All_ZigBit_Atmega1281_Rf230_8Mhz_Gcc.a(machwdRndHandler.o)
                0x00008b52                machwdRndReqHandler
 .text.machwdNextBuffer
                0x00008b66       0x10 ../BitCloud_ZIGBIT_1_7_0/BitCloud/Components/../lib\libBc_All_ZigBit_Atmega1281_Rf230_8Mhz_Gcc.a(machwdRxBuffer.o)
                0x00008b66                machwdNextBuffer
 .text.machwdReleaseBuffer
                0x00008b76       0x62 ../BitCloud_ZIGBIT_1_7_0/BitCloud/Components/../lib\libBc_All_ZigBit_Atmega1281_Rf230_8Mhz_Gcc.a(machwdRxBuffer.o)
                0x00008b76                machwdReleaseBuffer
 .text.machwdNextBufferPresent
                0x00008bd8       0x22 ../BitCloud_ZIGBIT_1_7_0/BitCloud/Components/../lib\libBc_All_ZigBit_Atmega1281_Rf230_8Mhz_Gcc.a(machwdRxBuffer.o)
                0x00008bd8                machwdNextBufferPresent
 .text.machwdResetRxBuffer
                0x00008bfa       0x62 ../BitCloud_ZIGBIT_1_7_0/BitCloud/Components/../lib\libBc_All_ZigBit_Atmega1281_Rf230_8Mhz_Gcc.a(machwdRxBuffer.o)
                0x00008bfa                machwdResetRxBuffer
 .text.machwdRxFrameIndTaskHandler
                0x00008c5c      0x11e ../BitCloud_ZIGBIT_1_7_0/BitCloud/Components/../lib\libBc_All_ZigBit_Atmega1281_Rf230_8Mhz_Gcc.a(machwdRxFrameHandler.o)
                0x00008c5c                machwdRxFrameIndTaskHandler
 .text.machwdRxFrameTaskHandler
                0x00008d7a       0x46 ../BitCloud_ZIGBIT_1_7_0/BitCloud/Components/../lib\libBc_All_ZigBit_Atmega1281_Rf230_8Mhz_Gcc.a(machwdRxFrameHandler.o)
                0x00008d7a                machwdRxFrameTaskHandler
 .text.machwdIsBeaconRxMode
                0x00008dc0        0x6 ../BitCloud_ZIGBIT_1_7_0/BitCloud/Components/../lib\libBc_All_ZigBit_Atmega1281_Rf230_8Mhz_Gcc.a(machwdSetHandler.o)
                0x00008dc0                machwdIsBeaconRxMode
 .text.machwdResetSetHandler
                0x00008dc6        0xe ../BitCloud_ZIGBIT_1_7_0/BitCloud/Components/../lib\libBc_All_ZigBit_Atmega1281_Rf230_8Mhz_Gcc.a(machwdSetHandler.o)
                0x00008dc6                machwdResetSetHandler
 .text.executeSetReq
                0x00008dd4       0x98 ../BitCloud_ZIGBIT_1_7_0/BitCloud/Components/../lib\libBc_All_ZigBit_Atmega1281_Rf230_8Mhz_Gcc.a(machwdSetHandler.o)
 .text.machwdSetTaskHandler
                0x00008e6c       0x2e ../BitCloud_ZIGBIT_1_7_0/BitCloud/Components/../lib\libBc_All_ZigBit_Atmega1281_Rf230_8Mhz_Gcc.a(machwdSetHandler.o)
                0x00008e6c                machwdSetTaskHandler
 .text.machwdSetReqHandler
                0x00008e9a      0x116 ../BitCloud_ZIGBIT_1_7_0/BitCloud/Components/../lib\libBc_All_ZigBit_Atmega1281_Rf230_8Mhz_Gcc.a(machwdSetHandler.o)
                0x00008e9a                machwdSetReqHandler
 .text.machwdConvertTrxCmdToTrxState
                0x00008fb0       0x16 ../BitCloud_ZIGBIT_1_7_0/BitCloud/Components/../lib\libBc_All_ZigBit_Atmega1281_Rf230_8Mhz_Gcc.a(machwdTrxCtrl.o)
                0x00008fb0                machwdConvertTrxCmdToTrxState
 .text.machwdConvertTrxStateToTrxCmd
                0x00008fc6       0x1e ../BitCloud_ZIGBIT_1_7_0/BitCloud/Components/../lib\libBc_All_ZigBit_Atmega1281_Rf230_8Mhz_Gcc.a(machwdTrxCtrl.o)
                0x00008fc6                machwdConvertTrxStateToTrxCmd
 .text.machwdGetPhyTrxCmd
                0x00008fe4       0x22 ../BitCloud_ZIGBIT_1_7_0/BitCloud/Components/../lib\libBc_All_ZigBit_Atmega1281_Rf230_8Mhz_Gcc.a(machwdTrxCtrl.o)
                0x00008fe4                machwdGetPhyTrxCmd
 .text.machwdSendTrxCmd
                0x00009006        0xe ../BitCloud_ZIGBIT_1_7_0/BitCloud/Components/../lib\libBc_All_ZigBit_Atmega1281_Rf230_8Mhz_Gcc.a(machwdTrxCtrl.o)
                0x00009006                machwdSendTrxCmd
 .text.machwdResetTrxHandler
                0x00009014        0x6 ../BitCloud_ZIGBIT_1_7_0/BitCloud/Components/../lib\libBc_All_ZigBit_Atmega1281_Rf230_8Mhz_Gcc.a(machwdTrxHandler.o)
                0x00009014                machwdResetTrxHandler
 .text.machwdTrxTaskHandler
                0x0000901a       0x30 ../BitCloud_ZIGBIT_1_7_0/BitCloud/Components/../lib\libBc_All_ZigBit_Atmega1281_Rf230_8Mhz_Gcc.a(machwdTrxHandler.o)
                0x0000901a                machwdTrxTaskHandler
 .text.machwdTrxReqHandler
                0x0000904a       0x46 ../BitCloud_ZIGBIT_1_7_0/BitCloud/Components/../lib\libBc_All_ZigBit_Atmega1281_Rf230_8Mhz_Gcc.a(machwdTrxHandler.o)
                0x0000904a                machwdTrxReqHandler
 .text.machwdResetTxFrameHandler
                0x00009090        0xa ../BitCloud_ZIGBIT_1_7_0/BitCloud/Components/../lib\libBc_All_ZigBit_Atmega1281_Rf230_8Mhz_Gcc.a(machwdTxFrameHandler.o)
                0x00009090                machwdResetTxFrameHandler
 .text.executePhyDataReq
                0x0000909a       0x14 ../BitCloud_ZIGBIT_1_7_0/BitCloud/Components/../lib\libBc_All_ZigBit_Atmega1281_Rf230_8Mhz_Gcc.a(machwdTxFrameHandler.o)
 .text.executeDataReq
                0x000090ae       0x24 ../BitCloud_ZIGBIT_1_7_0/BitCloud/Components/../lib\libBc_All_ZigBit_Atmega1281_Rf230_8Mhz_Gcc.a(machwdTxFrameHandler.o)
 .text.machwdTxFrameTaskHandler
                0x000090d2       0xa2 ../BitCloud_ZIGBIT_1_7_0/BitCloud/Components/../lib\libBc_All_ZigBit_Atmega1281_Rf230_8Mhz_Gcc.a(machwdTxFrameHandler.o)
                0x000090d2                machwdTxFrameTaskHandler
 .text.machwdTxFrameReqHandler
                0x00009174       0x48 ../BitCloud_ZIGBIT_1_7_0/BitCloud/Components/../lib\libBc_All_ZigBit_Atmega1281_Rf230_8Mhz_Gcc.a(machwdTxFrameHandler.o)
                0x00009174                machwdTxFrameReqHandler
 .text.machwiSendPollInd
                0x000091bc       0x12 ../BitCloud_ZIGBIT_1_7_0/BitCloud/Components/../lib\libBc_All_ZigBit_Atmega1281_Rf230_8Mhz_Gcc.a(machwiManager.o)
                0x000091bc                machwiSendPollInd
 .text.machwiSendOrphanInd
                0x000091ce       0x12 ../BitCloud_ZIGBIT_1_7_0/BitCloud/Components/../lib\libBc_All_ZigBit_Atmega1281_Rf230_8Mhz_Gcc.a(machwiManager.o)
                0x000091ce                machwiSendOrphanInd
 .text.machwiSendSyncLossNotifyInd
                0x000091e0       0x12 ../BitCloud_ZIGBIT_1_7_0/BitCloud/Components/../lib\libBc_All_ZigBit_Atmega1281_Rf230_8Mhz_Gcc.a(machwiManager.o)
                0x000091e0                machwiSendSyncLossNotifyInd
 .text.machwiSendBeaconNotifyInd
                0x000091f2       0x12 ../BitCloud_ZIGBIT_1_7_0/BitCloud/Components/../lib\libBc_All_ZigBit_Atmega1281_Rf230_8Mhz_Gcc.a(machwiManager.o)
                0x000091f2                machwiSendBeaconNotifyInd
 .text.machwiSendDataInd
                0x00009204       0x12 ../BitCloud_ZIGBIT_1_7_0/BitCloud/Components/../lib\libBc_All_ZigBit_Atmega1281_Rf230_8Mhz_Gcc.a(machwiManager.o)
                0x00009204                machwiSendDataInd
 .text.machwiSendAssociateInd
                0x00009216       0x12 ../BitCloud_ZIGBIT_1_7_0/BitCloud/Components/../lib\libBc_All_ZigBit_Atmega1281_Rf230_8Mhz_Gcc.a(machwiManager.o)
                0x00009216                machwiSendAssociateInd
 .text.putReqInQueue
                0x00009228       0x2c ../BitCloud_ZIGBIT_1_7_0/BitCloud/Components/../lib\libBc_All_ZigBit_Atmega1281_Rf230_8Mhz_Gcc.a(machwiManager.o)
 .text.MAC_DataReq
                0x00009254        0xe ../BitCloud_ZIGBIT_1_7_0/BitCloud/Components/../lib\libBc_All_ZigBit_Atmega1281_Rf230_8Mhz_Gcc.a(machwiManager.o)
                0x00009254                MAC_DataReq
 .text.MAC_PollReq
                0x00009262        0xe ../BitCloud_ZIGBIT_1_7_0/BitCloud/Components/../lib\libBc_All_ZigBit_Atmega1281_Rf230_8Mhz_Gcc.a(machwiManager.o)
                0x00009262                MAC_PollReq
 .text.MAC_StartReq
                0x00009270        0xe ../BitCloud_ZIGBIT_1_7_0/BitCloud/Components/../lib\libBc_All_ZigBit_Atmega1281_Rf230_8Mhz_Gcc.a(machwiManager.o)
                0x00009270                MAC_StartReq
 .text.MAC_SetReq
                0x0000927e        0xe ../BitCloud_ZIGBIT_1_7_0/BitCloud/Components/../lib\libBc_All_ZigBit_Atmega1281_Rf230_8Mhz_Gcc.a(machwiManager.o)
                0x0000927e                MAC_SetReq
 .text.MAC_ScanReq
                0x0000928c        0xe ../BitCloud_ZIGBIT_1_7_0/BitCloud/Components/../lib\libBc_All_ZigBit_Atmega1281_Rf230_8Mhz_Gcc.a(machwiManager.o)
                0x0000928c                MAC_ScanReq
 .text.MAC_RxEnableReq
                0x0000929a        0xe ../BitCloud_ZIGBIT_1_7_0/BitCloud/Components/../lib\libBc_All_ZigBit_Atmega1281_Rf230_8Mhz_Gcc.a(machwiManager.o)
                0x0000929a                MAC_RxEnableReq
 .text.MAC_GetReq
                0x000092a8        0xe ../BitCloud_ZIGBIT_1_7_0/BitCloud/Components/../lib\libBc_All_ZigBit_Atmega1281_Rf230_8Mhz_Gcc.a(machwiManager.o)
                0x000092a8                MAC_GetReq
 .text.MAC_AssociateResp
                0x000092b6        0xe ../BitCloud_ZIGBIT_1_7_0/BitCloud/Components/../lib\libBc_All_ZigBit_Atmega1281_Rf230_8Mhz_Gcc.a(machwiManager.o)
                0x000092b6                MAC_AssociateResp
 .text.MAC_AssociateReq
                0x000092c4        0xe ../BitCloud_ZIGBIT_1_7_0/BitCloud/Components/../lib\libBc_All_ZigBit_Atmega1281_Rf230_8Mhz_Gcc.a(machwiManager.o)
                0x000092c4                MAC_AssociateReq
 .text.MAC_ResetReq
                0x000092d2       0x5c ../BitCloud_ZIGBIT_1_7_0/BitCloud/Components/../lib\libBc_All_ZigBit_Atmega1281_Rf230_8Mhz_Gcc.a(machwiManager.o)
                0x000092d2                MAC_ResetReq
 .text.machwiSendConfToUpperLayer
                0x0000932e       0xae ../BitCloud_ZIGBIT_1_7_0/BitCloud/Components/../lib\libBc_All_ZigBit_Atmega1281_Rf230_8Mhz_Gcc.a(machwiManager.o)
                0x0000932e                machwiSendConfToUpperLayer
 .text.MAC_HWI_TaskHandler
                0x000093dc       0xb8 ../BitCloud_ZIGBIT_1_7_0/BitCloud/Components/../lib\libBc_All_ZigBit_Atmega1281_Rf230_8Mhz_Gcc.a(machwiManager.o)
                0x000093dc                MAC_HWI_TaskHandler
 .text.machwiOrphanNotificationInd
                0x00009494       0x4a ../BitCloud_ZIGBIT_1_7_0/BitCloud/Components/../lib\libBc_All_ZigBit_Atmega1281_Rf230_8Mhz_Gcc.a(machwiOrphanHandler.o)
                0x00009494                machwiOrphanNotificationInd
 .text.machwiOrphanRespHandler
                0x000094de      0x152 ../BitCloud_ZIGBIT_1_7_0/BitCloud/Components/../lib\libBc_All_ZigBit_Atmega1281_Rf230_8Mhz_Gcc.a(machwiOrphanHandler.o)
                0x000094de                machwiOrphanRespHandler
 .text.machwdDataConfirm
                0x00009630       0x2a ../BitCloud_ZIGBIT_1_7_0/BitCloud/Components/../lib\libBc_All_ZigBit_Atmega1281_Rf230_8Mhz_Gcc.a(machwiOrphanHandler.o)
 .text.machwiEnableBeaconTransmission
                0x0000965a        0x8 ../BitCloud_ZIGBIT_1_7_0/BitCloud/Components/../lib\libBc_All_ZigBit_Atmega1281_Rf230_8Mhz_Gcc.a(machwiPanServer.o)
                0x0000965a                machwiEnableBeaconTransmission
 .text.machwiResetPanServer
                0x00009662        0x6 ../BitCloud_ZIGBIT_1_7_0/BitCloud/Components/../lib\libBc_All_ZigBit_Atmega1281_Rf230_8Mhz_Gcc.a(machwiPanServer.o)
                0x00009662                machwiResetPanServer
 .text.MACHWD_DataInd
                0x00009668       0x6e ../BitCloud_ZIGBIT_1_7_0/BitCloud/Components/../lib\libBc_All_ZigBit_Atmega1281_Rf230_8Mhz_Gcc.a(machwiPanServer.o)
                0x00009668                MACHWD_DataInd
 .text.machwiResetPollHandler
                0x000096d6        0x6 ../BitCloud_ZIGBIT_1_7_0/BitCloud/Components/../lib\libBc_All_ZigBit_Atmega1281_Rf230_8Mhz_Gcc.a(machwiPollHandler.o)
                0x000096d6                machwiResetPollHandler
 .text.machwiPollReqHandler
                0x000096dc      0x110 ../BitCloud_ZIGBIT_1_7_0/BitCloud/Components/../lib\libBc_All_ZigBit_Atmega1281_Rf230_8Mhz_Gcc.a(machwiPollHandler.o)
                0x000096dc                machwiPollReqHandler
 .text.completeHandling
                0x000097ec       0x1a ../BitCloud_ZIGBIT_1_7_0/BitCloud/Components/../lib\libBc_All_ZigBit_Atmega1281_Rf230_8Mhz_Gcc.a(machwiPollHandler.o)
 .text.machwdDataConfirm
                0x00009806       0x6a ../BitCloud_ZIGBIT_1_7_0/BitCloud/Components/../lib\libBc_All_ZigBit_Atmega1281_Rf230_8Mhz_Gcc.a(machwiPollHandler.o)
 .text.halPollTimerFired
                0x00009870        0x6 ../BitCloud_ZIGBIT_1_7_0/BitCloud/Components/../lib\libBc_All_ZigBit_Atmega1281_Rf230_8Mhz_Gcc.a(machwiPollHandler.o)
 .text.switchingCompleted
                0x00009876       0x22 ../BitCloud_ZIGBIT_1_7_0/BitCloud/Components/../lib\libBc_All_ZigBit_Atmega1281_Rf230_8Mhz_Gcc.a(machwiPollHandler.o)
 .text.machwiDataIndication
                0x00009898      0x206 ../BitCloud_ZIGBIT_1_7_0/BitCloud/Components/../lib\libBc_All_ZigBit_Atmega1281_Rf230_8Mhz_Gcc.a(machwiPollHandler.o)
                0x00009898                machwiDataIndication
 .text.machwiPollInd
                0x00009a9e       0x5c ../BitCloud_ZIGBIT_1_7_0/BitCloud/Components/../lib\libBc_All_ZigBit_Atmega1281_Rf230_8Mhz_Gcc.a(machwiPollHandler.o)
                0x00009a9e                machwiPollInd
 .text.machwiPurgeReqHandler
                0x00009afa       0x2e ../BitCloud_ZIGBIT_1_7_0/BitCloud/Components/../lib\libBc_All_ZigBit_Atmega1281_Rf230_8Mhz_Gcc.a(machwiPurgeHandler.o)
                0x00009afa                machwiPurgeReqHandler
 .text.machwiResetReqHandler
                0x00009b28       0xc2 ../BitCloud_ZIGBIT_1_7_0/BitCloud/Components/../lib\libBc_All_ZigBit_Atmega1281_Rf230_8Mhz_Gcc.a(machwiResetHandler.o)
                0x00009b28                machwiResetReqHandler
 .text.machwdSetConfirm
                0x00009bea       0x1c ../BitCloud_ZIGBIT_1_7_0/BitCloud/Components/../lib\libBc_All_ZigBit_Atmega1281_Rf230_8Mhz_Gcc.a(machwiResetHandler.o)
 .text.machwdSetTrxStateConfirm
                0x00009c06       0x14 ../BitCloud_ZIGBIT_1_7_0/BitCloud/Components/../lib\libBc_All_ZigBit_Atmega1281_Rf230_8Mhz_Gcc.a(machwiResetHandler.o)
 .text.machwiRxEnableReqHandler
                0x00009c1a       0x4c ../BitCloud_ZIGBIT_1_7_0/BitCloud/Components/../lib\libBc_All_ZigBit_Atmega1281_Rf230_8Mhz_Gcc.a(machwiRxEnableHandler.o)
                0x00009c1a                machwiRxEnableReqHandler
 .text.machwdSetTrxStateConfirm
                0x00009c66       0x18 ../BitCloud_ZIGBIT_1_7_0/BitCloud/Components/../lib\libBc_All_ZigBit_Atmega1281_Rf230_8Mhz_Gcc.a(machwiRxEnableHandler.o)
 .text.machwiResetScanHandler
                0x00009c7e        0x6 ../BitCloud_ZIGBIT_1_7_0/BitCloud/Components/../lib\libBc_All_ZigBit_Atmega1281_Rf230_8Mhz_Gcc.a(machwiScanHandler.o)
                0x00009c7e                machwiResetScanHandler
 .text.machwiCoordRealignmentCommandInd
                0x00009c84      0x164 ../BitCloud_ZIGBIT_1_7_0/BitCloud/Components/../lib\libBc_All_ZigBit_Atmega1281_Rf230_8Mhz_Gcc.a(machwiScanHandler.o)
                0x00009c84                machwiCoordRealignmentCommandInd
 .text.setNextChannel
                0x00009de8       0xb6 ../BitCloud_ZIGBIT_1_7_0/BitCloud/Components/../lib\libBc_All_ZigBit_Atmega1281_Rf230_8Mhz_Gcc.a(machwiScanHandler.o)
 .text.switchToActiveChannel
                0x00009e9e       0x6c ../BitCloud_ZIGBIT_1_7_0/BitCloud/Components/../lib\libBc_All_ZigBit_Atmega1281_Rf230_8Mhz_Gcc.a(machwiScanHandler.o)
 .text.halScanTimerFired
                0x00009f0a       0x2a ../BitCloud_ZIGBIT_1_7_0/BitCloud/Components/../lib\libBc_All_ZigBit_Atmega1281_Rf230_8Mhz_Gcc.a(machwiScanHandler.o)
 .text.machwdDataConfirm
                0x00009f34       0x76 ../BitCloud_ZIGBIT_1_7_0/BitCloud/Components/../lib\libBc_All_ZigBit_Atmega1281_Rf230_8Mhz_Gcc.a(machwiScanHandler.o)
 .text.machwdEdConfirm
                0x00009faa       0xf2 ../BitCloud_ZIGBIT_1_7_0/BitCloud/Components/../lib\libBc_All_ZigBit_Atmega1281_Rf230_8Mhz_Gcc.a(machwiScanHandler.o)
 .text.trxStateHandling
                0x0000a09c       0x20 ../BitCloud_ZIGBIT_1_7_0/BitCloud/Components/../lib\libBc_All_ZigBit_Atmega1281_Rf230_8Mhz_Gcc.a(machwiScanHandler.o)
 .text.generateScanConfirm
                0x0000a0bc       0x22 ../BitCloud_ZIGBIT_1_7_0/BitCloud/Components/../lib\libBc_All_ZigBit_Atmega1281_Rf230_8Mhz_Gcc.a(machwiScanHandler.o)
 .text.machwdSetConfirm
                0x0000a0de      0x44e ../BitCloud_ZIGBIT_1_7_0/BitCloud/Components/../lib\libBc_All_ZigBit_Atmega1281_Rf230_8Mhz_Gcc.a(machwiScanHandler.o)
 .text.machwdSetTrxStateConfirm
                0x0000a52c      0x108 ../BitCloud_ZIGBIT_1_7_0/BitCloud/Components/../lib\libBc_All_ZigBit_Atmega1281_Rf230_8Mhz_Gcc.a(machwiScanHandler.o)
 .text.machwiBeaconInd
                0x0000a634      0x2f6 ../BitCloud_ZIGBIT_1_7_0/BitCloud/Components/../lib\libBc_All_ZigBit_Atmega1281_Rf230_8Mhz_Gcc.a(machwiScanHandler.o)
                0x0000a634                machwiBeaconInd
 .text.machwiScanReqHandler
                0x0000a92a      0x1f6 ../BitCloud_ZIGBIT_1_7_0/BitCloud/Components/../lib\libBc_All_ZigBit_Atmega1281_Rf230_8Mhz_Gcc.a(machwiScanHandler.o)
                0x0000a92a                machwiScanReqHandler
 .text.machwiSetReqHandler
                0x0000ab20       0xb8 ../BitCloud_ZIGBIT_1_7_0/BitCloud/Components/../lib\libBc_All_ZigBit_Atmega1281_Rf230_8Mhz_Gcc.a(machwiSetGetHandler.o)
                0x0000ab20                machwiSetReqHandler
 .text.machwdSetConfirm
                0x0000abd8       0x14 ../BitCloud_ZIGBIT_1_7_0/BitCloud/Components/../lib\libBc_All_ZigBit_Atmega1281_Rf230_8Mhz_Gcc.a(machwiSetGetHandler.o)
 .text.machwiGetReqHandler
                0x0000abec       0x4c ../BitCloud_ZIGBIT_1_7_0/BitCloud/Components/../lib\libBc_All_ZigBit_Atmega1281_Rf230_8Mhz_Gcc.a(machwiSetGetHandler.o)
                0x0000abec                machwiGetReqHandler
 .text.machwiResetStartHandler
                0x0000ac38        0xa ../BitCloud_ZIGBIT_1_7_0/BitCloud/Components/../lib\libBc_All_ZigBit_Atmega1281_Rf230_8Mhz_Gcc.a(machwiStartHandler.o)
                0x0000ac38                machwiResetStartHandler
 .text.setHandling
                0x0000ac42       0x70 ../BitCloud_ZIGBIT_1_7_0/BitCloud/Components/../lib\libBc_All_ZigBit_Atmega1281_Rf230_8Mhz_Gcc.a(machwiStartHandler.o)
 .text.setStartReqParam
                0x0000acb2       0xb2 ../BitCloud_ZIGBIT_1_7_0/BitCloud/Components/../lib\libBc_All_ZigBit_Atmega1281_Rf230_8Mhz_Gcc.a(machwiStartHandler.o)
 .text.generateConfirm
                0x0000ad64       0x44 ../BitCloud_ZIGBIT_1_7_0/BitCloud/Components/../lib\libBc_All_ZigBit_Atmega1281_Rf230_8Mhz_Gcc.a(machwiStartHandler.o)
 .text.machwiStartReqHandler
                0x0000ada8       0x44 ../BitCloud_ZIGBIT_1_7_0/BitCloud/Components/../lib\libBc_All_ZigBit_Atmega1281_Rf230_8Mhz_Gcc.a(machwiStartHandler.o)
                0x0000ada8                machwiStartReqHandler
 .text.machwdSetConfirm
                0x0000adec      0x160 ../BitCloud_ZIGBIT_1_7_0/BitCloud/Components/../lib\libBc_All_ZigBit_Atmega1281_Rf230_8Mhz_Gcc.a(machwiStartHandler.o)
 .text.machwdDataConfirm
                0x0000af4c       0x3c ../BitCloud_ZIGBIT_1_7_0/BitCloud/Components/../lib\libBc_All_ZigBit_Atmega1281_Rf230_8Mhz_Gcc.a(machwiStartHandler.o)
 .text.machwdSetTrxStateConfirm
                0x0000af88        0xc ../BitCloud_ZIGBIT_1_7_0/BitCloud/Components/../lib\libBc_All_ZigBit_Atmega1281_Rf230_8Mhz_Gcc.a(machwiSwitchRxCtrl.o)
 .text.machwiSwitchRxAccordToRxOnWhenIdle
                0x0000af94       0x2c ../BitCloud_ZIGBIT_1_7_0/BitCloud/Components/../lib\libBc_All_ZigBit_Atmega1281_Rf230_8Mhz_Gcc.a(machwiSwitchRxCtrl.o)
                0x0000af94                machwiSwitchRxAccordToRxOnWhenIdle
 .text.machwiResetTransactionHandler
                0x0000afc0        0xa ../BitCloud_ZIGBIT_1_7_0/BitCloud/Components/../lib\libBc_All_ZigBit_Atmega1281_Rf230_8Mhz_Gcc.a(machwiTransactionHandler.o)
                0x0000afc0                machwiResetTransactionHandler
 .text.machwiSendTransactionEvent
                0x0000afca      0x1c0 ../BitCloud_ZIGBIT_1_7_0/BitCloud/Components/../lib\libBc_All_ZigBit_Atmega1281_Rf230_8Mhz_Gcc.a(machwiTransactionHandler.o)
                0x0000afca                machwiSendTransactionEvent
 .text.machwdDataConfirm
                0x0000b18a       0xbc ../BitCloud_ZIGBIT_1_7_0/BitCloud/Components/../lib\libBc_All_ZigBit_Atmega1281_Rf230_8Mhz_Gcc.a(machwiTransactionHandler.o)
 .text.machwiResetTransactionQueue
                0x0000b246       0x4c ../BitCloud_ZIGBIT_1_7_0/BitCloud/Components/../lib\libBc_All_ZigBit_Atmega1281_Rf230_8Mhz_Gcc.a(machwiTransactionQueue.o)
                0x0000b246                machwiResetTransactionQueue
 .text.machwiGetActivatedTransactionFromQueue
                0x0000b292       0x20 ../BitCloud_ZIGBIT_1_7_0/BitCloud/Components/../lib\libBc_All_ZigBit_Atmega1281_Rf230_8Mhz_Gcc.a(machwiTransactionQueue.o)
                0x0000b292                machwiGetActivatedTransactionFromQueue
 .text.transactionTimerFired
                0x0000b2b2       0x50 ../BitCloud_ZIGBIT_1_7_0/BitCloud/Components/../lib\libBc_All_ZigBit_Atmega1281_Rf230_8Mhz_Gcc.a(machwiTransactionQueue.o)
 .text.machwiTestAndKickQueueTransactions
                0x0000b302      0x1ce ../BitCloud_ZIGBIT_1_7_0/BitCloud/Components/../lib\libBc_All_ZigBit_Atmega1281_Rf230_8Mhz_Gcc.a(machwiTransactionQueue.o)
                0x0000b302                machwiTestAndKickQueueTransactions
 .text.machwiDeleteTransactionFromQueue
                0x0000b4d0       0x20 ../BitCloud_ZIGBIT_1_7_0/BitCloud/Components/../lib\libBc_All_ZigBit_Atmega1281_Rf230_8Mhz_Gcc.a(machwiTransactionQueue.o)
                0x0000b4d0                machwiDeleteTransactionFromQueue
 .text.machwiPurgeTransactionFromQueue
                0x0000b4f0       0x3e ../BitCloud_ZIGBIT_1_7_0/BitCloud/Components/../lib\libBc_All_ZigBit_Atmega1281_Rf230_8Mhz_Gcc.a(machwiTransactionQueue.o)
                0x0000b4f0                machwiPurgeTransactionFromQueue
 .text.machwiFillPendingAddrSpecAndList
                0x0000b52e      0x220 ../BitCloud_ZIGBIT_1_7_0/BitCloud/Components/../lib\libBc_All_ZigBit_Atmega1281_Rf230_8Mhz_Gcc.a(machwiTransactionQueue.o)
                0x0000b52e                machwiFillPendingAddrSpecAndList
 .text.machwiPutTransactionToQueue
                0x0000b74e       0x7c ../BitCloud_ZIGBIT_1_7_0/BitCloud/Components/../lib\libBc_All_ZigBit_Atmega1281_Rf230_8Mhz_Gcc.a(machwiTransactionQueue.o)
                0x0000b74e                machwiPutTransactionToQueue
 .text.nwkResetAddrConflict
                0x0000b7ca       0x1e ../BitCloud_ZIGBIT_1_7_0/BitCloud/Components/../lib\libBc_All_ZigBit_Atmega1281_Rf230_8Mhz_Gcc.a(nwkAddrConflict.o)
                0x0000b7ca                nwkResetAddrConflict
 .text.nwkAddrConflictTaskHandler
                0x0000b7e8      0x240 ../BitCloud_ZIGBIT_1_7_0/BitCloud/Components/../lib\libBc_All_ZigBit_Atmega1281_Rf230_8Mhz_Gcc.a(nwkAddrConflict.o)
                0x0000b7e8                nwkAddrConflictTaskHandler
 .text.NWK_JoinConf
                0x0000ba28       0x44 ../BitCloud_ZIGBIT_1_7_0/BitCloud/Components/../lib\libBc_All_ZigBit_Atmega1281_Rf230_8Mhz_Gcc.a(nwkAddrConflict.o)
 .text.MAC_SetConf
                0x0000ba6c       0x4c ../BitCloud_ZIGBIT_1_7_0/BitCloud/Components/../lib\libBc_All_ZigBit_Atmega1281_Rf230_8Mhz_Gcc.a(nwkAddrConflict.o)
 .text.nwkStatusConf
                0x0000bab8       0x10 ../BitCloud_ZIGBIT_1_7_0/BitCloud/Components/../lib\libBc_All_ZigBit_Atmega1281_Rf230_8Mhz_Gcc.a(nwkAddrConflict.o)
 .text.nwkAddrConflictReq
                0x0000bac8       0x20 ../BitCloud_ZIGBIT_1_7_0/BitCloud/Components/../lib\libBc_All_ZigBit_Atmega1281_Rf230_8Mhz_Gcc.a(nwkAddrConflict.o)
                0x0000bac8                nwkAddrConflictReq
 .text.nwkInitAge
                0x0000bae8       0x2e ../BitCloud_ZIGBIT_1_7_0/BitCloud/Components/../lib\libBc_All_ZigBit_Atmega1281_Rf230_8Mhz_Gcc.a(nwkAge.o)
                0x0000bae8                nwkInitAge
 .text.nwkUpdateAge
                0x0000bb16       0x32 ../BitCloud_ZIGBIT_1_7_0/BitCloud/Components/../lib\libBc_All_ZigBit_Atmega1281_Rf230_8Mhz_Gcc.a(nwkAge.o)
                0x0000bb16                nwkUpdateAge
 .text.nwkFindOldestAge
                0x0000bb48       0x42 ../BitCloud_ZIGBIT_1_7_0/BitCloud/Components/../lib\libBc_All_ZigBit_Atmega1281_Rf230_8Mhz_Gcc.a(nwkAge.o)
                0x0000bb48                nwkFindOldestAge
 .text.nwkResetItemAge
                0x0000bb8a       0x52 ../BitCloud_ZIGBIT_1_7_0/BitCloud/Components/../lib\libBc_All_ZigBit_Atmega1281_Rf230_8Mhz_Gcc.a(nwkAge.o)
                0x0000bb8a                nwkResetItemAge
 .text.nwkGetItemAge
                0x0000bbdc        0xe ../BitCloud_ZIGBIT_1_7_0/BitCloud/Components/../lib\libBc_All_ZigBit_Atmega1281_Rf230_8Mhz_Gcc.a(nwkAge.o)
                0x0000bbdc                nwkGetItemAge
 .text.nwkResetAge
                0x0000bbea       0x42 ../BitCloud_ZIGBIT_1_7_0/BitCloud/Components/../lib\libBc_All_ZigBit_Atmega1281_Rf230_8Mhz_Gcc.a(nwkAge.o)
                0x0000bbea                nwkResetAge
 .text.ageTimerFired
                0x0000bc2c        0xa ../BitCloud_ZIGBIT_1_7_0/BitCloud/Components/../lib\libBc_All_ZigBit_Atmega1281_Rf230_8Mhz_Gcc.a(nwkAge.o)
 .text.nwkUpdateAgeBTT
                0x0000bc36       0x1a ../BitCloud_ZIGBIT_1_7_0/BitCloud/Components/../lib\libBc_All_ZigBit_Atmega1281_Rf230_8Mhz_Gcc.a(nwkBTT.o)
                0x0000bc36                nwkUpdateAgeBTT
 .text.nwkCheckBTT
                0x0000bc50       0xce ../BitCloud_ZIGBIT_1_7_0/BitCloud/Components/../lib\libBc_All_ZigBit_Atmega1281_Rf230_8Mhz_Gcc.a(nwkBTT.o)
                0x0000bc50                nwkCheckBTT
 .text.nwkResetBTT
                0x0000bd1e       0x5e ../BitCloud_ZIGBIT_1_7_0/BitCloud/Components/../lib\libBc_All_ZigBit_Atmega1281_Rf230_8Mhz_Gcc.a(nwkBTT.o)
                0x0000bd1e                nwkResetBTT
 .text.nwkResetCommands
                0x0000bd7c        0xa ../BitCloud_ZIGBIT_1_7_0/BitCloud/Components/../lib\libBc_All_ZigBit_Atmega1281_Rf230_8Mhz_Gcc.a(nwkCommands.o)
                0x0000bd7c                nwkResetCommands
 .text.nwkTxCommandConf
                0x0000bd86       0x36 ../BitCloud_ZIGBIT_1_7_0/BitCloud/Components/../lib\libBc_All_ZigBit_Atmega1281_Rf230_8Mhz_Gcc.a(nwkCommands.o)
                0x0000bd86                nwkTxCommandConf
 .text.nwkTryToProcessCommandReq
                0x0000bdbc       0x5a ../BitCloud_ZIGBIT_1_7_0/BitCloud/Components/../lib\libBc_All_ZigBit_Atmega1281_Rf230_8Mhz_Gcc.a(nwkCommands.o)
 .text.nwkFreePacketInd
                0x0000be16        0x6 ../BitCloud_ZIGBIT_1_7_0/BitCloud/Components/../lib\libBc_All_ZigBit_Atmega1281_Rf230_8Mhz_Gcc.a(nwkCommands.o)
                0x0000be16                nwkFreePacketInd
 .text.nwkCommandReq
                0x0000be1c       0x10 ../BitCloud_ZIGBIT_1_7_0/BitCloud/Components/../lib\libBc_All_ZigBit_Atmega1281_Rf230_8Mhz_Gcc.a(nwkCommands.o)
                0x0000be1c                nwkCommandReq
 .text.nwkCommandInd
                0x0000be2c       0x52 ../BitCloud_ZIGBIT_1_7_0/BitCloud/Components/../lib\libBc_All_ZigBit_Atmega1281_Rf230_8Mhz_Gcc.a(nwkCommands.o)
                0x0000be2c                nwkCommandInd
 .text.MAC_BeaconNotifyInd
                0x0000be7e      0x69e ../BitCloud_ZIGBIT_1_7_0/BitCloud/Components/../lib\libBc_All_ZigBit_Atmega1281_Rf230_8Mhz_Gcc.a(nwkDiscovery.o)
                0x0000be7e                MAC_BeaconNotifyInd
 .text.nwkDiscoveryTaskHandler
                0x0000c51c       0xc4 ../BitCloud_ZIGBIT_1_7_0/BitCloud/Components/../lib\libBc_All_ZigBit_Atmega1281_Rf230_8Mhz_Gcc.a(nwkDiscovery.o)
                0x0000c51c                nwkDiscoveryTaskHandler
 .text.MAC_ActiveScanConf
                0x0000c5e0       0x34 ../BitCloud_ZIGBIT_1_7_0/BitCloud/Components/../lib\libBc_All_ZigBit_Atmega1281_Rf230_8Mhz_Gcc.a(nwkDiscovery.o)
 .text.nwkResetDiscovery
                0x0000c614       0x10 ../BitCloud_ZIGBIT_1_7_0/BitCloud/Components/../lib\libBc_All_ZigBit_Atmega1281_Rf230_8Mhz_Gcc.a(nwkDiscovery.o)
                0x0000c614                nwkResetDiscovery
 .text.NWK_NetworkDiscoveryReq
                0x0000c624       0x20 ../BitCloud_ZIGBIT_1_7_0/BitCloud/Components/../lib\libBc_All_ZigBit_Atmega1281_Rf230_8Mhz_Gcc.a(nwkDiscovery.o)
                0x0000c624                NWK_NetworkDiscoveryReq
 .text.nwkResetEDScan
                0x0000c644       0x10 ../BitCloud_ZIGBIT_1_7_0/BitCloud/Components/../lib\libBc_All_ZigBit_Atmega1281_Rf230_8Mhz_Gcc.a(nwkEDScan.o)
                0x0000c644                nwkResetEDScan
 .text.nwkEDScanTaskHandler
                0x0000c654       0xd0 ../BitCloud_ZIGBIT_1_7_0/BitCloud/Components/../lib\libBc_All_ZigBit_Atmega1281_Rf230_8Mhz_Gcc.a(nwkEDScan.o)
                0x0000c654                nwkEDScanTaskHandler
 .text.MAC_EDScanConf
                0x0000c724       0x5a ../BitCloud_ZIGBIT_1_7_0/BitCloud/Components/../lib\libBc_All_ZigBit_Atmega1281_Rf230_8Mhz_Gcc.a(nwkEDScan.o)
 .text.NWK_EDScanReq
                0x0000c77e       0x20 ../BitCloud_ZIGBIT_1_7_0/BitCloud/Components/../lib\libBc_All_ZigBit_Atmega1281_Rf230_8Mhz_Gcc.a(nwkEDScan.o)
                0x0000c77e                NWK_EDScanReq
 .text.nwkResetFormation
                0x0000c79e       0x14 ../BitCloud_ZIGBIT_1_7_0/BitCloud/Components/../lib\libBc_All_ZigBit_Atmega1281_Rf230_8Mhz_Gcc.a(nwkFormation.o)
                0x0000c79e                nwkResetFormation
 .text.MAC_RxEnableConf
                0x0000c7b2       0x28 ../BitCloud_ZIGBIT_1_7_0/BitCloud/Components/../lib\libBc_All_ZigBit_Atmega1281_Rf230_8Mhz_Gcc.a(nwkFormation.o)
 .text.performActiveScan
                0x0000c7da       0x60 ../BitCloud_ZIGBIT_1_7_0/BitCloud/Components/../lib\libBc_All_ZigBit_Atmega1281_Rf230_8Mhz_Gcc.a(nwkFormation.o)
 .text.nwkFormationTaskHandler
                0x0000c83a      0x14a ../BitCloud_ZIGBIT_1_7_0/BitCloud/Components/../lib\libBc_All_ZigBit_Atmega1281_Rf230_8Mhz_Gcc.a(nwkFormation.o)
                0x0000c83a                nwkFormationTaskHandler
 .text.MAC_EDScanConf
                0x0000c984       0xf0 ../BitCloud_ZIGBIT_1_7_0/BitCloud/Components/../lib\libBc_All_ZigBit_Atmega1281_Rf230_8Mhz_Gcc.a(nwkFormation.o)
 .text.MAC_ActiveScanConf
                0x0000ca74      0x274 ../BitCloud_ZIGBIT_1_7_0/BitCloud/Components/../lib\libBc_All_ZigBit_Atmega1281_Rf230_8Mhz_Gcc.a(nwkFormation.o)
 .text.MAC_SetConf
                0x0000cce8      0x114 ../BitCloud_ZIGBIT_1_7_0/BitCloud/Components/../lib\libBc_All_ZigBit_Atmega1281_Rf230_8Mhz_Gcc.a(nwkFormation.o)
 .text.MAC_StartConf
                0x0000cdfc       0x54 ../BitCloud_ZIGBIT_1_7_0/BitCloud/Components/../lib\libBc_All_ZigBit_Atmega1281_Rf230_8Mhz_Gcc.a(nwkFormation.o)
 .text.NWK_NetworkFormationReq
                0x0000ce50       0x20 ../BitCloud_ZIGBIT_1_7_0/BitCloud/Components/../lib\libBc_All_ZigBit_Atmega1281_Rf230_8Mhz_Gcc.a(nwkFormation.o)
                0x0000ce50                NWK_NetworkFormationReq
 .text.NWK_GetParentShortAddr
                0x0000ce70        0xa ../BitCloud_ZIGBIT_1_7_0/BitCloud/Components/../lib\libBc_All_ZigBit_Atmega1281_Rf230_8Mhz_Gcc.a(nwkIB.o)
                0x0000ce70                NWK_GetParentShortAddr
 .text.NWK_GetPanId
                0x0000ce7a        0xa ../BitCloud_ZIGBIT_1_7_0/BitCloud/Components/../lib\libBc_All_ZigBit_Atmega1281_Rf230_8Mhz_Gcc.a(nwkIB.o)
                0x0000ce7a                NWK_GetPanId
 .text.NWK_GetExtPanId
                0x0000ce84       0x22 ../BitCloud_ZIGBIT_1_7_0/BitCloud/Components/../lib\libBc_All_ZigBit_Atmega1281_Rf230_8Mhz_Gcc.a(nwkIB.o)
                0x0000ce84                NWK_GetExtPanId
 .text.NWK_GetCapabilityInformation
                0x0000cea6        0x6 ../BitCloud_ZIGBIT_1_7_0/BitCloud/Components/../lib\libBc_All_ZigBit_Atmega1281_Rf230_8Mhz_Gcc.a(nwkIB.o)
                0x0000cea6                NWK_GetCapabilityInformation
 .text.NWK_GetLogicalChannel
                0x0000ceac        0x6 ../BitCloud_ZIGBIT_1_7_0/BitCloud/Components/../lib\libBc_All_ZigBit_Atmega1281_Rf230_8Mhz_Gcc.a(nwkIB.o)
                0x0000ceac                NWK_GetLogicalChannel
 .text.NWK_SetLogicalChannel
                0x0000ceb2        0x6 ../BitCloud_ZIGBIT_1_7_0/BitCloud/Components/../lib\libBc_All_ZigBit_Atmega1281_Rf230_8Mhz_Gcc.a(nwkIB.o)
                0x0000ceb2                NWK_SetLogicalChannel
 .text.NWK_GetBroadcastDeliveryTime
                0x0000ceb8        0x6 ../BitCloud_ZIGBIT_1_7_0/BitCloud/Components/../lib\libBc_All_ZigBit_Atmega1281_Rf230_8Mhz_Gcc.a(nwkIB.o)
                0x0000ceb8                NWK_GetBroadcastDeliveryTime
 .text.NWK_SetManagerAddr
                0x0000cebe        0xa ../BitCloud_ZIGBIT_1_7_0/BitCloud/Components/../lib\libBc_All_ZigBit_Atmega1281_Rf230_8Mhz_Gcc.a(nwkIB.o)
                0x0000cebe                NWK_SetManagerAddr
 .text.NWK_SetUpdateId
                0x0000cec8        0x6 ../BitCloud_ZIGBIT_1_7_0/BitCloud/Components/../lib\libBc_All_ZigBit_Atmega1281_Rf230_8Mhz_Gcc.a(nwkIB.o)
                0x0000cec8                NWK_SetUpdateId
 .text.nwkSetParentShortAddr
                0x0000cece       0x2c ../BitCloud_ZIGBIT_1_7_0/BitCloud/Components/../lib\libBc_All_ZigBit_Atmega1281_Rf230_8Mhz_Gcc.a(nwkIB.o)
                0x0000cece                nwkSetParentShortAddr
 .text.nwkSetDepth
                0x0000cefa       0x66 ../BitCloud_ZIGBIT_1_7_0/BitCloud/Components/../lib\libBc_All_ZigBit_Atmega1281_Rf230_8Mhz_Gcc.a(nwkIB.o)
                0x0000cefa                nwkSetDepth
 .text.nwkUpdateBeaconPayload
                0x0000cf60       0x76 ../BitCloud_ZIGBIT_1_7_0/BitCloud/Components/../lib\libBc_All_ZigBit_Atmega1281_Rf230_8Mhz_Gcc.a(nwkIB.o)
                0x0000cf60                nwkUpdateBeaconPayload
 .text.nwkReloadNibFromConfigServer
                0x0000cfd6      0x182 ../BitCloud_ZIGBIT_1_7_0/BitCloud/Components/../lib\libBc_All_ZigBit_Atmega1281_Rf230_8Mhz_Gcc.a(nwkIB.o)
                0x0000cfd6                nwkReloadNibFromConfigServer
 .text.nwkResetNib
                0x0000d158       0x8a ../BitCloud_ZIGBIT_1_7_0/BitCloud/Components/../lib\libBc_All_ZigBit_Atmega1281_Rf230_8Mhz_Gcc.a(nwkIB.o)
                0x0000d158                nwkResetNib
 .text.nwkPrepareRejoinMacReq
                0x0000d1e2       0x4e ../BitCloud_ZIGBIT_1_7_0/BitCloud/Components/../lib\libBc_All_ZigBit_Atmega1281_Rf230_8Mhz_Gcc.a(nwkJoinInd.o)
 .text.MAC_OrphanInd
                0x0000d230        0x2 ../BitCloud_ZIGBIT_1_7_0/BitCloud/Components/../lib\libBc_All_ZigBit_Atmega1281_Rf230_8Mhz_Gcc.a(nwkJoinInd.o)
                0x0000d230                MAC_OrphanInd
 .text.nwkResetJoinInd
                0x0000d232       0x4c ../BitCloud_ZIGBIT_1_7_0/BitCloud/Components/../lib\libBc_All_ZigBit_Atmega1281_Rf230_8Mhz_Gcc.a(nwkJoinInd.o)
                0x0000d232                nwkResetJoinInd
 .text.nwkChangeEndDeviceAddress
                0x0000d27e      0x136 ../BitCloud_ZIGBIT_1_7_0/BitCloud/Components/../lib\libBc_All_ZigBit_Atmega1281_Rf230_8Mhz_Gcc.a(nwkJoinInd.o)
                0x0000d27e                nwkChangeEndDeviceAddress
 .text.nwkRejoinResponseConfirmConflict
                0x0000d3b4       0x44 ../BitCloud_ZIGBIT_1_7_0/BitCloud/Components/../lib\libBc_All_ZigBit_Atmega1281_Rf230_8Mhz_Gcc.a(nwkJoinInd.o)
 .text.nwkPrepareRejoinMacData
                0x0000d3f8       0xec ../BitCloud_ZIGBIT_1_7_0/BitCloud/Components/../lib\libBc_All_ZigBit_Atmega1281_Rf230_8Mhz_Gcc.a(nwkJoinInd.o)
 .text.nwkAddChild
                0x0000d4e4      0x390 ../BitCloud_ZIGBIT_1_7_0/BitCloud/Components/../lib\libBc_All_ZigBit_Atmega1281_Rf230_8Mhz_Gcc.a(nwkJoinInd.o)
 .text.MAC_AssociateInd
                0x0000d874      0x156 ../BitCloud_ZIGBIT_1_7_0/BitCloud/Components/../lib\libBc_All_ZigBit_Atmega1281_Rf230_8Mhz_Gcc.a(nwkJoinInd.o)
                0x0000d874                MAC_AssociateInd
 .text.nwkRejoinRequestFrameInd
                0x0000d9ca      0x230 ../BitCloud_ZIGBIT_1_7_0/BitCloud/Components/../lib\libBc_All_ZigBit_Atmega1281_Rf230_8Mhz_Gcc.a(nwkJoinInd.o)
                0x0000d9ca                nwkRejoinRequestFrameInd
 .text.MAC_CommStatusInd
                0x0000dbfa       0x4e ../BitCloud_ZIGBIT_1_7_0/BitCloud/Components/../lib\libBc_All_ZigBit_Atmega1281_Rf230_8Mhz_Gcc.a(nwkJoinInd.o)
 .text.nwkRejoinResponseConfirm
                0x0000dc48       0x52 ../BitCloud_ZIGBIT_1_7_0/BitCloud/Components/../lib\libBc_All_ZigBit_Atmega1281_Rf230_8Mhz_Gcc.a(nwkJoinInd.o)
 .text.nwkJoinIndTaskHandler
                0x0000dc9a       0xea ../BitCloud_ZIGBIT_1_7_0/BitCloud/Components/../lib\libBc_All_ZigBit_Atmega1281_Rf230_8Mhz_Gcc.a(nwkJoinInd.o)
                0x0000dc9a                nwkJoinIndTaskHandler
 .text.prepareMacReq
                0x0000dd84       0x26 ../BitCloud_ZIGBIT_1_7_0/BitCloud/Components/../lib\libBc_All_ZigBit_Atmega1281_Rf230_8Mhz_Gcc.a(nwkJoinReq.o)
 .text.nwkResetJoinReq
                0x0000ddaa       0x48 ../BitCloud_ZIGBIT_1_7_0/BitCloud/Components/../lib\libBc_All_ZigBit_Atmega1281_Rf230_8Mhz_Gcc.a(nwkJoinReq.o)
                0x0000ddaa                nwkResetJoinReq
 .text.nwkFindDeviceToJoin
                0x0000ddf2      0x162 ../BitCloud_ZIGBIT_1_7_0/BitCloud/Components/../lib\libBc_All_ZigBit_Atmega1281_Rf230_8Mhz_Gcc.a(nwkJoinReq.o)
 .text.nwkGetSuitableParent
                0x0000df54       0x80 ../BitCloud_ZIGBIT_1_7_0/BitCloud/Components/../lib\libBc_All_ZigBit_Atmega1281_Rf230_8Mhz_Gcc.a(nwkJoinReq.o)
 .text.nwkRejoinResponseFrameInd
                0x0000dfd4      0x192 ../BitCloud_ZIGBIT_1_7_0/BitCloud/Components/../lib\libBc_All_ZigBit_Atmega1281_Rf230_8Mhz_Gcc.a(nwkJoinReq.o)
                0x0000dfd4                nwkRejoinResponseFrameInd
 .text.MAC_PollConf
                0x0000e166       0x1c ../BitCloud_ZIGBIT_1_7_0/BitCloud/Components/../lib\libBc_All_ZigBit_Atmega1281_Rf230_8Mhz_Gcc.a(nwkJoinReq.o)
 .text.MAC_SetConf
                0x0000e182      0x1ae ../BitCloud_ZIGBIT_1_7_0/BitCloud/Components/../lib\libBc_All_ZigBit_Atmega1281_Rf230_8Mhz_Gcc.a(nwkJoinReq.o)
 .text.nwkRejoinCmdPrepareAndSend
                0x0000e330       0x56 ../BitCloud_ZIGBIT_1_7_0/BitCloud/Components/../lib\libBc_All_ZigBit_Atmega1281_Rf230_8Mhz_Gcc.a(nwkJoinReq.o)
 .text.MAC_RxEnableConf
                0x0000e386       0x7c ../BitCloud_ZIGBIT_1_7_0/BitCloud/Components/../lib\libBc_All_ZigBit_Atmega1281_Rf230_8Mhz_Gcc.a(nwkJoinReq.o)
 .text.MAC_GetConf
                0x0000e402       0x40 ../BitCloud_ZIGBIT_1_7_0/BitCloud/Components/../lib\libBc_All_ZigBit_Atmega1281_Rf230_8Mhz_Gcc.a(nwkJoinReq.o)
 .text.rejoinRequestConfirm
                0x0000e442       0x62 ../BitCloud_ZIGBIT_1_7_0/BitCloud/Components/../lib\libBc_All_ZigBit_Atmega1281_Rf230_8Mhz_Gcc.a(nwkJoinReq.o)
 .text.responseWaitTimerFired
                0x0000e4a4       0x50 ../BitCloud_ZIGBIT_1_7_0/BitCloud/Components/../lib\libBc_All_ZigBit_Atmega1281_Rf230_8Mhz_Gcc.a(nwkJoinReq.o)
 .text.prepareMacData
                0x0000e4f4       0xb0 ../BitCloud_ZIGBIT_1_7_0/BitCloud/Components/../lib\libBc_All_ZigBit_Atmega1281_Rf230_8Mhz_Gcc.a(nwkJoinReq.o)
 .text.nwkAssociate
                0x0000e5a4       0x9e ../BitCloud_ZIGBIT_1_7_0/BitCloud/Components/../lib\libBc_All_ZigBit_Atmega1281_Rf230_8Mhz_Gcc.a(nwkJoinReq.o)
 .text.nwkJoinReqTaskHandler
                0x0000e642      0x228 ../BitCloud_ZIGBIT_1_7_0/BitCloud/Components/../lib\libBc_All_ZigBit_Atmega1281_Rf230_8Mhz_Gcc.a(nwkJoinReq.o)
                0x0000e642                nwkJoinReqTaskHandler
 .text.MAC_AssociateConf
                0x0000e86a       0xe8 ../BitCloud_ZIGBIT_1_7_0/BitCloud/Components/../lib\libBc_All_ZigBit_Atmega1281_Rf230_8Mhz_Gcc.a(nwkJoinReq.o)
 .text.NWK_NetworkDiscoveryConf
                0x0000e952       0x96 ../BitCloud_ZIGBIT_1_7_0/BitCloud/Components/../lib\libBc_All_ZigBit_Atmega1281_Rf230_8Mhz_Gcc.a(nwkJoinReq.o)
 .text.NWK_JoinReq
                0x0000e9e8       0x20 ../BitCloud_ZIGBIT_1_7_0/BitCloud/Components/../lib\libBc_All_ZigBit_Atmega1281_Rf230_8Mhz_Gcc.a(nwkJoinReq.o)
                0x0000e9e8                NWK_JoinReq
 .text.nwkResetLeave
                0x0000ea08       0x1e ../BitCloud_ZIGBIT_1_7_0/BitCloud/Components/../lib\libBc_All_ZigBit_Atmega1281_Rf230_8Mhz_Gcc.a(nwkLeaveInd.o)
                0x0000ea08                nwkResetLeave
 .text.nwkLeaveIndication
                0x0000ea26       0x46 ../BitCloud_ZIGBIT_1_7_0/BitCloud/Components/../lib\libBc_All_ZigBit_Atmega1281_Rf230_8Mhz_Gcc.a(nwkLeaveInd.o)
 .text.NWK_RemoveNeighbor
                0x0000ea6c       0x2e ../BitCloud_ZIGBIT_1_7_0/BitCloud/Components/../lib\libBc_All_ZigBit_Atmega1281_Rf230_8Mhz_Gcc.a(nwkLeaveInd.o)
                0x0000ea6c                NWK_RemoveNeighbor
 .text.nwkLeaveFrameInd
                0x0000ea9a       0x5a ../BitCloud_ZIGBIT_1_7_0/BitCloud/Components/../lib\libBc_All_ZigBit_Atmega1281_Rf230_8Mhz_Gcc.a(nwkLeaveInd.o)
                0x0000ea9a                nwkLeaveFrameInd
 .text.nwkPrepareMacReqOfLeaveItSelfCmd
                0x0000eaf4        0xe ../BitCloud_ZIGBIT_1_7_0/BitCloud/Components/../lib\libBc_All_ZigBit_Atmega1281_Rf230_8Mhz_Gcc.a(nwkLeaveReq.o)
 .text.nwkPrepareMacReqOfLeaveChildCmd
                0x0000eb02       0x20 ../BitCloud_ZIGBIT_1_7_0/BitCloud/Components/../lib\libBc_All_ZigBit_Atmega1281_Rf230_8Mhz_Gcc.a(nwkLeaveReq.o)
 .text.nwkRemoveAllChildren
                0x0000eb22      0x13a ../BitCloud_ZIGBIT_1_7_0/BitCloud/Components/../lib\libBc_All_ZigBit_Atmega1281_Rf230_8Mhz_Gcc.a(nwkLeaveReq.o)
 .text.nwkConfirmOfLeaveChildCmd
                0x0000ec5c       0x54 ../BitCloud_ZIGBIT_1_7_0/BitCloud/Components/../lib\libBc_All_ZigBit_Atmega1281_Rf230_8Mhz_Gcc.a(nwkLeaveReq.o)
 .text.nwkLeaveTaskHandler
                0x0000ecb0      0x1ce ../BitCloud_ZIGBIT_1_7_0/BitCloud/Components/../lib\libBc_All_ZigBit_Atmega1281_Rf230_8Mhz_Gcc.a(nwkLeaveReq.o)
                0x0000ecb0                nwkLeaveTaskHandler
 .text.nwkConfirmOfLeaveItSelfCmd
                0x0000ee7e       0x52 ../BitCloud_ZIGBIT_1_7_0/BitCloud/Components/../lib\libBc_All_ZigBit_Atmega1281_Rf230_8Mhz_Gcc.a(nwkLeaveReq.o)
 .text.MAC_ResetConf
                0x0000eed0       0x96 ../BitCloud_ZIGBIT_1_7_0/BitCloud/Components/../lib\libBc_All_ZigBit_Atmega1281_Rf230_8Mhz_Gcc.a(nwkLeaveReq.o)
 .text.nwkPrepareMacDataOfLeaveItSelfCmd
                0x0000ef66       0xae ../BitCloud_ZIGBIT_1_7_0/BitCloud/Components/../lib\libBc_All_ZigBit_Atmega1281_Rf230_8Mhz_Gcc.a(nwkLeaveReq.o)
 .text.nwkPrepareMacDataOfLeaveChildCmd
                0x0000f014       0xda ../BitCloud_ZIGBIT_1_7_0/BitCloud/Components/../lib\libBc_All_ZigBit_Atmega1281_Rf230_8Mhz_Gcc.a(nwkLeaveReq.o)
 .text.NWK_LeaveReq
                0x0000f0ee       0x20 ../BitCloud_ZIGBIT_1_7_0/BitCloud/Components/../lib\libBc_All_ZigBit_Atmega1281_Rf230_8Mhz_Gcc.a(nwkLeaveReq.o)
                0x0000f0ee                NWK_LeaveReq
 .text.nwkPrepareLinkStatusMacReq
                0x0000f10e       0x1e ../BitCloud_ZIGBIT_1_7_0/BitCloud/Components/../lib\libBc_All_ZigBit_Atmega1281_Rf230_8Mhz_Gcc.a(nwkLinkStatus.o)
 .text.nwkLinkStatusInd
                0x0000f12c      0x45c ../BitCloud_ZIGBIT_1_7_0/BitCloud/Components/../lib\libBc_All_ZigBit_Atmega1281_Rf230_8Mhz_Gcc.a(nwkLinkStatus.o)
                0x0000f12c                nwkLinkStatusInd
 .text.nwkResetLinkStatus
                0x0000f588       0x8a ../BitCloud_ZIGBIT_1_7_0/BitCloud/Components/../lib\libBc_All_ZigBit_Atmega1281_Rf230_8Mhz_Gcc.a(nwkLinkStatus.o)
                0x0000f588                nwkResetLinkStatus
 .text.nwkLinkStatusSendConfirm
                0x0000f612       0x10 ../BitCloud_ZIGBIT_1_7_0/BitCloud/Components/../lib\libBc_All_ZigBit_Atmega1281_Rf230_8Mhz_Gcc.a(nwkLinkStatus.o)
 .text.nwkLinkStatusTimerFired
                0x0000f622       0x28 ../BitCloud_ZIGBIT_1_7_0/BitCloud/Components/../lib\libBc_All_ZigBit_Atmega1281_Rf230_8Mhz_Gcc.a(nwkLinkStatus.o)
 .text.nwkPrepareLinkStatusMSDU
                0x0000f64a      0x27e ../BitCloud_ZIGBIT_1_7_0/BitCloud/Components/../lib\libBc_All_ZigBit_Atmega1281_Rf230_8Mhz_Gcc.a(nwkLinkStatus.o)
 .text.nwkAllocInputPacket
                0x0000f8c8       0x64 ../BitCloud_ZIGBIT_1_7_0/BitCloud/Components/../lib\libBc_All_ZigBit_Atmega1281_Rf230_8Mhz_Gcc.a(nwkPacket.o)
                0x0000f8c8                nwkAllocInputPacket
 .text.nwkAllocOutputPacket
                0x0000f92c       0x64 ../BitCloud_ZIGBIT_1_7_0/BitCloud/Components/../lib\libBc_All_ZigBit_Atmega1281_Rf230_8Mhz_Gcc.a(nwkPacket.o)
                0x0000f92c                nwkAllocOutputPacket
 .text.nwkTransformInToOutPacket
                0x0000f990       0x30 ../BitCloud_ZIGBIT_1_7_0/BitCloud/Components/../lib\libBc_All_ZigBit_Atmega1281_Rf230_8Mhz_Gcc.a(nwkPacket.o)
                0x0000f990                nwkTransformInToOutPacket
 .text.nwkResetPacketManager
                0x0000f9c0       0x4a ../BitCloud_ZIGBIT_1_7_0/BitCloud/Components/../lib\libBc_All_ZigBit_Atmega1281_Rf230_8Mhz_Gcc.a(nwkPacket.o)
                0x0000f9c0                nwkResetPacketManager
 .text.nwkFreeOutputPacket
                0x0000fa0a        0xe ../BitCloud_ZIGBIT_1_7_0/BitCloud/Components/../lib\libBc_All_ZigBit_Atmega1281_Rf230_8Mhz_Gcc.a(nwkPacket.o)
                0x0000fa0a                nwkFreeOutputPacket
 .text.nwkFreeInputPacket
                0x0000fa18        0xe ../BitCloud_ZIGBIT_1_7_0/BitCloud/Components/../lib\libBc_All_ZigBit_Atmega1281_Rf230_8Mhz_Gcc.a(nwkPacket.o)
                0x0000fa18                nwkFreeInputPacket
 .text.nwkResetPermitJoining
                0x0000fa26       0x1e ../BitCloud_ZIGBIT_1_7_0/BitCloud/Components/../lib\libBc_All_ZigBit_Atmega1281_Rf230_8Mhz_Gcc.a(nwkPermitJoining.o)
                0x0000fa26                nwkResetPermitJoining
 .text.nwkPermitJoiningTaskHandler
                0x0000fa44       0x8a ../BitCloud_ZIGBIT_1_7_0/BitCloud/Components/../lib\libBc_All_ZigBit_Atmega1281_Rf230_8Mhz_Gcc.a(nwkPermitJoining.o)
                0x0000fa44                nwkPermitJoiningTaskHandler
 .text.MAC_SetConf
                0x0000face       0x1e ../BitCloud_ZIGBIT_1_7_0/BitCloud/Components/../lib\libBc_All_ZigBit_Atmega1281_Rf230_8Mhz_Gcc.a(nwkPermitJoining.o)
 .text.NWK_PermitJoiningReq
                0x0000faec       0x20 ../BitCloud_ZIGBIT_1_7_0/BitCloud/Components/../lib\libBc_All_ZigBit_Atmega1281_Rf230_8Mhz_Gcc.a(nwkPermitJoining.o)
                0x0000faec                NWK_PermitJoiningReq
 .text.nwkGetNextHop
                0x0000fb0c       0xe0 ../BitCloud_ZIGBIT_1_7_0/BitCloud/Components/../lib\libBc_All_ZigBit_Atmega1281_Rf230_8Mhz_Gcc.a(nwkRouting.o)
                0x0000fb0c                nwkGetNextHop
 .text.nwkRetransmitInputPacket
                0x0000fbec       0x64 ../BitCloud_ZIGBIT_1_7_0/BitCloud/Components/../lib\libBc_All_ZigBit_Atmega1281_Rf230_8Mhz_Gcc.a(nwkRx.o)
 .text.NWK_DataResp
                0x0000fc50       0x1a ../BitCloud_ZIGBIT_1_7_0/BitCloud/Components/../lib\libBc_All_ZigBit_Atmega1281_Rf230_8Mhz_Gcc.a(nwkRx.o)
                0x0000fc50                NWK_DataResp
 .text.nwkRxRetransmit
                0x0000fc6a       0x92 ../BitCloud_ZIGBIT_1_7_0/BitCloud/Components/../lib\libBc_All_ZigBit_Atmega1281_Rf230_8Mhz_Gcc.a(nwkRx.o)
 .text.nwkRxIndication
                0x0000fcfc      0x112 ../BitCloud_ZIGBIT_1_7_0/BitCloud/Components/../lib\libBc_All_ZigBit_Atmega1281_Rf230_8Mhz_Gcc.a(nwkRx.o)
 .text.MAC_DataInd
                0x0000fe0e      0x2b4 ../BitCloud_ZIGBIT_1_7_0/BitCloud/Components/../lib\libBc_All_ZigBit_Atmega1281_Rf230_8Mhz_Gcc.a(nwkRx.o)
                0x0000fe0e                MAC_DataInd
 .text.MAC_SyncLossInd
                0x000100c2        0x2 ../BitCloud_ZIGBIT_1_7_0/BitCloud/Components/../lib\libBc_All_ZigBit_Atmega1281_Rf230_8Mhz_Gcc.a(nwkSyncLoss.o)
                0x000100c2                MAC_SyncLossInd
 .text.PHY_Reset
                0x000100c4       0x9e ../BitCloud_ZIGBIT_1_7_0/BitCloud/Components/../lib\libBc_All_ZigBit_Atmega1281_Rf230_8Mhz_Gcc.a(phyReset.o)
                0x000100c4                PHY_Reset
 .text.PHY_DownloadFrame
                0x00010162      0x1f8 ../BitCloud_ZIGBIT_1_7_0/BitCloud/Components/../lib\libBc_All_ZigBit_Atmega1281_Rf230_8Mhz_Gcc.a(phyRxFrame.o)
                0x00010162                PHY_DownloadFrame
 .text.storeParameterToRf
                0x0001035a       0x4a ../BitCloud_ZIGBIT_1_7_0/BitCloud/Components/../lib\libBc_All_ZigBit_Atmega1281_Rf230_8Mhz_Gcc.a(phySet.o)
 .text.PHY_SetReq
                0x000103a4      0x1e8 ../BitCloud_ZIGBIT_1_7_0/BitCloud/Components/../lib\libBc_All_ZigBit_Atmega1281_Rf230_8Mhz_Gcc.a(phySet.o)
                0x000103a4                PHY_SetReq
 .text.PHY_SetTrxStateReq
                0x0001058c       0x9a ../BitCloud_ZIGBIT_1_7_0/BitCloud/Components/../lib\libBc_All_ZigBit_Atmega1281_Rf230_8Mhz_Gcc.a(phySetTrxState.o)
                0x0001058c                PHY_SetTrxStateReq
 .text.PHY_DataReq
                0x00010626       0x4a ../BitCloud_ZIGBIT_1_7_0/BitCloud/Components/../lib\libBc_All_ZigBit_Atmega1281_Rf230_8Mhz_Gcc.a(phyTxFrame.o)
                0x00010626                PHY_DataReq
 .text.zdoBindManagerRequestCreate
                0x00010670      0x10c ../BitCloud_ZIGBIT_1_7_0/BitCloud/Components/../lib\libBc_All_ZigBit_Atmega1281_Rf230_8Mhz_Gcc.a(zdoBindingManager.o)
                0x00010670                zdoBindManagerRequestCreate
 .text.apsDataConfHandler
                0x0001077c        0x8 ../BitCloud_ZIGBIT_1_7_0/BitCloud/Components/../lib\libBc_All_ZigBit_Atmega1281_Rf230_8Mhz_Gcc.a(zdoBindingManager.o)
 .text.zdoBindManagerInd
                0x00010784      0x41e ../BitCloud_ZIGBIT_1_7_0/BitCloud/Components/../lib\libBc_All_ZigBit_Atmega1281_Rf230_8Mhz_Gcc.a(zdoBindingManager.o)
                0x00010784                zdoBindManagerInd
 .text.zdoCheckState
                0x00010ba2       0x20 ../BitCloud_ZIGBIT_1_7_0/BitCloud/Components/../lib\libBc_All_ZigBit_Atmega1281_Rf230_8Mhz_Gcc.a(zdoCheckState.o)
                0x00010ba2                zdoCheckState
 .text.buildResponseHeader
                0x00010bc2       0x9e ../BitCloud_ZIGBIT_1_7_0/BitCloud/Components/../lib\libBc_All_ZigBit_Atmega1281_Rf230_8Mhz_Gcc.a(zdoDiscoveryManager.o)
 .text.confirmResponse
                0x00010c60        0x8 ../BitCloud_ZIGBIT_1_7_0/BitCloud/Components/../lib\libBc_All_ZigBit_Atmega1281_Rf230_8Mhz_Gcc.a(zdoDiscoveryManager.o)
 .text.createNwkAddrResponse
                0x00010c68      0x12e ../BitCloud_ZIGBIT_1_7_0/BitCloud/Components/../lib\libBc_All_ZigBit_Atmega1281_Rf230_8Mhz_Gcc.a(zdoDiscoveryManager.o)
 .text.zdoZdpDiscoveryRequestCreate
                0x00010d96      0x236 ../BitCloud_ZIGBIT_1_7_0/BitCloud/Components/../lib\libBc_All_ZigBit_Atmega1281_Rf230_8Mhz_Gcc.a(zdoDiscoveryManager.o)
                0x00010d96                zdoZdpDiscoveryRequestCreate
 .text.zdoZdpDiscoveryMessageInd
                0x00010fcc      0x63a ../BitCloud_ZIGBIT_1_7_0/BitCloud/Components/../lib\libBc_All_ZigBit_Atmega1281_Rf230_8Mhz_Gcc.a(zdoDiscoveryManager.o)
                0x00010fcc                zdoZdpDiscoveryMessageInd
 .text.zdoExecuteEDScan
                0x00011606       0x2a ../BitCloud_ZIGBIT_1_7_0/BitCloud/Components/../lib\libBc_All_ZigBit_Atmega1281_Rf230_8Mhz_Gcc.a(zdoNodeManager.o)
                0x00011606                zdoExecuteEDScan
 .text.confirmNwkUpdateNotify
                0x00011630       0x28 ../BitCloud_ZIGBIT_1_7_0/BitCloud/Components/../lib\libBc_All_ZigBit_Atmega1281_Rf230_8Mhz_Gcc.a(zdoNodeManager.o)
 .text.NWK_EDScanConf
                0x00011658       0x3a ../BitCloud_ZIGBIT_1_7_0/BitCloud/Components/../lib\libBc_All_ZigBit_Atmega1281_Rf230_8Mhz_Gcc.a(zdoNodeManager.o)
 .text.confirmLqiResponse
                0x00011692        0x8 ../BitCloud_ZIGBIT_1_7_0/BitCloud/Components/../lib\libBc_All_ZigBit_Atmega1281_Rf230_8Mhz_Gcc.a(zdoNodeManager.o)
 .text.confirmPermitJoiningResponse
                0x0001169a        0x8 ../BitCloud_ZIGBIT_1_7_0/BitCloud/Components/../lib\libBc_All_ZigBit_Atmega1281_Rf230_8Mhz_Gcc.a(zdoNodeManager.o)
 .text.leaveNetwork
                0x000116a2       0x6c ../BitCloud_ZIGBIT_1_7_0/BitCloud/Components/../lib\libBc_All_ZigBit_Atmega1281_Rf230_8Mhz_Gcc.a(zdoNodeManager.o)
 .text.confirmLeaveResponse
                0x0001170e       0x26 ../BitCloud_ZIGBIT_1_7_0/BitCloud/Components/../lib\libBc_All_ZigBit_Atmega1281_Rf230_8Mhz_Gcc.a(zdoNodeManager.o)
 .text.zdoZdpNodeRequestCreate
                0x00011734      0x216 ../BitCloud_ZIGBIT_1_7_0/BitCloud/Components/../lib\libBc_All_ZigBit_Atmega1281_Rf230_8Mhz_Gcc.a(zdoNodeManager.o)
                0x00011734                zdoZdpNodeRequestCreate
 .text.NWK_LeaveConf
                0x0001194a        0xc ../BitCloud_ZIGBIT_1_7_0/BitCloud/Components/../lib\libBc_All_ZigBit_Atmega1281_Rf230_8Mhz_Gcc.a(zdoNodeManager.o)
 .text.zdpNWK_PermitJoiningConf
                0x00011956       0x16 ../BitCloud_ZIGBIT_1_7_0/BitCloud/Components/../lib\libBc_All_ZigBit_Atmega1281_Rf230_8Mhz_Gcc.a(zdoNodeManager.o)
 .text.zdpNodeWaitTimerFired
                0x0001196c       0x50 ../BitCloud_ZIGBIT_1_7_0/BitCloud/Components/../lib\libBc_All_ZigBit_Atmega1281_Rf230_8Mhz_Gcc.a(zdoNodeManager.o)
 .text.MAC_SetConf
                0x000119bc       0x7a ../BitCloud_ZIGBIT_1_7_0/BitCloud/Components/../lib\libBc_All_ZigBit_Atmega1281_Rf230_8Mhz_Gcc.a(zdoNodeManager.o)
 .text.zdoZdpNodeMessageInd
                0x00011a36      0x5a6 ../BitCloud_ZIGBIT_1_7_0/BitCloud/Components/../lib\libBc_All_ZigBit_Atmega1281_Rf230_8Mhz_Gcc.a(zdoNodeManager.o)
                0x00011a36                zdoZdpNodeMessageInd
 .text.zdoPowerManagerInit
                0x00011fdc        0xe ../BitCloud_ZIGBIT_1_7_0/BitCloud/Components/../lib\libBc_All_ZigBit_Atmega1281_Rf230_8Mhz_Gcc.a(zdoPowerManager.o)
                0x00011fdc                zdoPowerManagerInit
 .text.sendSleepConfirm
                0x00011fea       0x24 ../BitCloud_ZIGBIT_1_7_0/BitCloud/Components/../lib\libBc_All_ZigBit_Atmega1281_Rf230_8Mhz_Gcc.a(zdoPowerManager.o)
 .text.sleepTimerFired
                0x0001200e       0x5e ../BitCloud_ZIGBIT_1_7_0/BitCloud/Components/../lib\libBc_All_ZigBit_Atmega1281_Rf230_8Mhz_Gcc.a(zdoPowerManager.o)
 .text.sendSyncReq
                0x0001206c       0x28 ../BitCloud_ZIGBIT_1_7_0/BitCloud/Components/../lib\libBc_All_ZigBit_Atmega1281_Rf230_8Mhz_Gcc.a(zdoPowerManager.o)
 .text.APS_StartConf
                0x00012094       0x82 ../BitCloud_ZIGBIT_1_7_0/BitCloud/Components/../lib\libBc_All_ZigBit_Atmega1281_Rf230_8Mhz_Gcc.a(zdoPowerManager.o)
 .text.syncTimerFired
                0x00012116        0x6 ../BitCloud_ZIGBIT_1_7_0/BitCloud/Components/../lib\libBc_All_ZigBit_Atmega1281_Rf230_8Mhz_Gcc.a(zdoPowerManager.o)
 .text.zdoStartSyncReq
                0x0001211c       0x30 ../BitCloud_ZIGBIT_1_7_0/BitCloud/Components/../lib\libBc_All_ZigBit_Atmega1281_Rf230_8Mhz_Gcc.a(zdoPowerManager.o)
                0x0001211c                zdoStartSyncReq
 .text.zdoStopSyncReq
                0x0001214c        0xe ../BitCloud_ZIGBIT_1_7_0/BitCloud/Components/../lib\libBc_All_ZigBit_Atmega1281_Rf230_8Mhz_Gcc.a(zdoPowerManager.o)
                0x0001214c                zdoStopSyncReq
 .text.startSleepTimer
                0x0001215a       0x6a ../BitCloud_ZIGBIT_1_7_0/BitCloud/Components/../lib\libBc_All_ZigBit_Atmega1281_Rf230_8Mhz_Gcc.a(zdoPowerManager.o)
 .text.ZDO_SleepResp
                0x000121c4       0x4c ../BitCloud_ZIGBIT_1_7_0/BitCloud/Components/../lib\libBc_All_ZigBit_Atmega1281_Rf230_8Mhz_Gcc.a(zdoPowerManager.o)
                0x000121c4                ZDO_SleepResp
 .text.NWK_SyncConf
                0x00012210       0xb8 ../BitCloud_ZIGBIT_1_7_0/BitCloud/Components/../lib\libBc_All_ZigBit_Atmega1281_Rf230_8Mhz_Gcc.a(zdoPowerManager.o)
 .text.APS_StopConf
                0x000122c8       0x16 ../BitCloud_ZIGBIT_1_7_0/BitCloud/Components/../lib\libBc_All_ZigBit_Atmega1281_Rf230_8Mhz_Gcc.a(zdoPowerManager.o)
 .text.zdoSecurityManagerHandler
                0x000122de        0x2 ../BitCloud_ZIGBIT_1_7_0/BitCloud/Components/../lib\libBc_All_ZigBit_Atmega1281_Rf230_8Mhz_Gcc.a(zdoSecurityManager.o)
                0x000122de                zdoSecurityManagerHandler
 .text.zdoAuthenticationStart
                0x000122e0        0x8 ../BitCloud_ZIGBIT_1_7_0/BitCloud/Components/../lib\libBc_All_ZigBit_Atmega1281_Rf230_8Mhz_Gcc.a(zdoSecurityManager.o)
                0x000122e0                zdoAuthenticationStart
 .text.SYS_Sleep
                0x000122e8        0x6 ../BitCloud_ZIGBIT_1_7_0/BitCloud/Components/../lib\libBc_All_ZigBit_Atmega1281_Rf230_8Mhz_Gcc.a(bcSysSleep.o)
                0x000122e8                SYS_Sleep
 .text.macenvGetPhySymbolDuration
                0x000122ee       0x38 ../BitCloud_ZIGBIT_1_7_0/BitCloud/Components/../lib\libBc_All_ZigBit_Atmega1281_Rf230_8Mhz_Gcc.a(macenvPib.o)
                0x000122ee                macenvGetPhySymbolDuration
 .text.macenvCalculateResponceWaitTimeInMs
                0x00012326       0x4c ../BitCloud_ZIGBIT_1_7_0/BitCloud/Components/../lib\libBc_All_ZigBit_Atmega1281_Rf230_8Mhz_Gcc.a(macenvPib.o)
                0x00012326                macenvCalculateResponceWaitTimeInMs
 .text.calculateMaxFrameDuration
                0x00012372       0x62 ../BitCloud_ZIGBIT_1_7_0/BitCloud/Components/../lib\libBc_All_ZigBit_Atmega1281_Rf230_8Mhz_Gcc.a(macenvPib.o)
 .text.macenvCalculateMaxFrameTotalWaitTimeInMs
                0x000123d4      0x130 ../BitCloud_ZIGBIT_1_7_0/BitCloud/Components/../lib\libBc_All_ZigBit_Atmega1281_Rf230_8Mhz_Gcc.a(macenvPib.o)
                0x000123d4                macenvCalculateMaxFrameTotalWaitTimeInMs
 .text.macenvGetPibAttr
                0x00012504      0x1de ../BitCloud_ZIGBIT_1_7_0/BitCloud/Components/../lib\libBc_All_ZigBit_Atmega1281_Rf230_8Mhz_Gcc.a(macenvPib.o)
                0x00012504                macenvGetPibAttr
 .text.updateMaxFrameTxTime
                0x000126e2       0x48 ../BitCloud_ZIGBIT_1_7_0/BitCloud/Components/../lib\libBc_All_ZigBit_Atmega1281_Rf230_8Mhz_Gcc.a(macenvPib.o)
 .text.macenvSetPibAttr
                0x0001272a      0x230 ../BitCloud_ZIGBIT_1_7_0/BitCloud/Components/../lib\libBc_All_ZigBit_Atmega1281_Rf230_8Mhz_Gcc.a(macenvPib.o)
                0x0001272a                macenvSetPibAttr
 .text.macenvResetPib
                0x0001295a      0x1f8 ../BitCloud_ZIGBIT_1_7_0/BitCloud/Components/../lib\libBc_All_ZigBit_Atmega1281_Rf230_8Mhz_Gcc.a(macenvPib.o)
                0x0001295a                macenvResetPib
 .text.machwdEdTaskHandler
                0x00012b52       0x22 ../BitCloud_ZIGBIT_1_7_0/BitCloud/Components/../lib\libBc_All_ZigBit_Atmega1281_Rf230_8Mhz_Gcc.a(machwdEdHandler.o)
                0x00012b52                machwdEdTaskHandler
 .text.machwdResetEdHandler
                0x00012b74        0x6 ../BitCloud_ZIGBIT_1_7_0/BitCloud/Components/../lib\libBc_All_ZigBit_Atmega1281_Rf230_8Mhz_Gcc.a(machwdEdHandler.o)
                0x00012b74                machwdResetEdHandler
 .text.machwdEdReqHandler
                0x00012b7a       0x2c ../BitCloud_ZIGBIT_1_7_0/BitCloud/Components/../lib\libBc_All_ZigBit_Atmega1281_Rf230_8Mhz_Gcc.a(machwdEdHandler.o)
                0x00012b7a                machwdEdReqHandler
 .text.composePanIdAndAddress
                0x00012ba6       0x50 ../BitCloud_ZIGBIT_1_7_0/BitCloud/Components/../lib\libBc_All_ZigBit_Atmega1281_Rf230_8Mhz_Gcc.a(machwdFrameRoutine.o)
 .text.machwdComposeFrame
                0x00012bf6      0x204 ../BitCloud_ZIGBIT_1_7_0/BitCloud/Components/../lib\libBc_All_ZigBit_Atmega1281_Rf230_8Mhz_Gcc.a(machwdFrameRoutine.o)
                0x00012bf6                machwdComposeFrame
 .text.parsePanIdAndAddress
                0x00012dfa       0x48 ../BitCloud_ZIGBIT_1_7_0/BitCloud/Components/../lib\libBc_All_ZigBit_Atmega1281_Rf230_8Mhz_Gcc.a(machwdFrameRoutine.o)
 .text.machwdParseFrame
                0x00012e42      0x278 ../BitCloud_ZIGBIT_1_7_0/BitCloud/Components/../lib\libBc_All_ZigBit_Atmega1281_Rf230_8Mhz_Gcc.a(machwdFrameRoutine.o)
                0x00012e42                machwdParseFrame
 .text.machwdGetHandlerId
                0x000130ba       0x42 ../BitCloud_ZIGBIT_1_7_0/BitCloud/Components/../lib\libBc_All_ZigBit_Atmega1281_Rf230_8Mhz_Gcc.a(machwdHandlerCtrl.o)
                0x000130ba                machwdGetHandlerId
 .text.machwiResetAssociateHandler
                0x000130fc        0x6 ../BitCloud_ZIGBIT_1_7_0/BitCloud/Components/../lib\libBc_All_ZigBit_Atmega1281_Rf230_8Mhz_Gcc.a(machwiAssociateHandler.o)
                0x000130fc                machwiResetAssociateHandler
 .text.setHandling
                0x00013102       0x70 ../BitCloud_ZIGBIT_1_7_0/BitCloud/Components/../lib\libBc_All_ZigBit_Atmega1281_Rf230_8Mhz_Gcc.a(machwiAssociateHandler.o)
 .text.completeHandling
                0x00013172       0x1a ../BitCloud_ZIGBIT_1_7_0/BitCloud/Components/../lib\libBc_All_ZigBit_Atmega1281_Rf230_8Mhz_Gcc.a(machwiAssociateHandler.o)
 .text.machwiAssociateRespInd
                0x0001318c      0x128 ../BitCloud_ZIGBIT_1_7_0/BitCloud/Components/../lib\libBc_All_ZigBit_Atmega1281_Rf230_8Mhz_Gcc.a(machwiAssociateHandler.o)
                0x0001318c                machwiAssociateRespInd
 .text.machwdSetConfirm
                0x000132b4      0x172 ../BitCloud_ZIGBIT_1_7_0/BitCloud/Components/../lib\libBc_All_ZigBit_Atmega1281_Rf230_8Mhz_Gcc.a(machwiAssociateHandler.o)
 .text.machwdDataConfirm
                0x00013426       0xae ../BitCloud_ZIGBIT_1_7_0/BitCloud/Components/../lib\libBc_All_ZigBit_Atmega1281_Rf230_8Mhz_Gcc.a(machwiAssociateHandler.o)
 .text.associateTimerFired
                0x000134d4       0xe2 ../BitCloud_ZIGBIT_1_7_0/BitCloud/Components/../lib\libBc_All_ZigBit_Atmega1281_Rf230_8Mhz_Gcc.a(machwiAssociateHandler.o)
 .text.switchingCompleted
                0x000135b6       0x22 ../BitCloud_ZIGBIT_1_7_0/BitCloud/Components/../lib\libBc_All_ZigBit_Atmega1281_Rf230_8Mhz_Gcc.a(machwiAssociateHandler.o)
 .text.machwiAssociateRespHandler
                0x000135d8       0x20 ../BitCloud_ZIGBIT_1_7_0/BitCloud/Components/../lib\libBc_All_ZigBit_Atmega1281_Rf230_8Mhz_Gcc.a(machwiAssociateHandler.o)
                0x000135d8                machwiAssociateRespHandler
 .text.machwiAssociateReqHandler
                0x000135f8       0x9c ../BitCloud_ZIGBIT_1_7_0/BitCloud/Components/../lib\libBc_All_ZigBit_Atmega1281_Rf230_8Mhz_Gcc.a(machwiAssociateHandler.o)
                0x000135f8                machwiAssociateReqHandler
 .text.machwiAssociateReqInd
                0x00013694       0x42 ../BitCloud_ZIGBIT_1_7_0/BitCloud/Components/../lib\libBc_All_ZigBit_Atmega1281_Rf230_8Mhz_Gcc.a(machwiAssociateHandler.o)
                0x00013694                machwiAssociateReqInd
 .text.machwiBeaconReqInd
                0x000136d6      0x108 ../BitCloud_ZIGBIT_1_7_0/BitCloud/Components/../lib\libBc_All_ZigBit_Atmega1281_Rf230_8Mhz_Gcc.a(machwiBeaconHandler.o)
                0x000136d6                machwiBeaconReqInd
 .text.machwdDataConfirm
                0x000137de        0x8 ../BitCloud_ZIGBIT_1_7_0/BitCloud/Components/../lib\libBc_All_ZigBit_Atmega1281_Rf230_8Mhz_Gcc.a(machwiBeaconHandler.o)
 .text.machwiConvertmachwdDataConfirmTypes
                0x000137e6       0x16 ../BitCloud_ZIGBIT_1_7_0/BitCloud/Components/../lib\libBc_All_ZigBit_Atmega1281_Rf230_8Mhz_Gcc.a(machwiDataHandler.o)
                0x000137e6                machwiConvertmachwdDataConfirmTypes
 .text.machwiPrepareDataFrame
                0x000137fc       0xf6 ../BitCloud_ZIGBIT_1_7_0/BitCloud/Components/../lib\libBc_All_ZigBit_Atmega1281_Rf230_8Mhz_Gcc.a(machwiDataHandler.o)
                0x000137fc                machwiPrepareDataFrame
 .text.machwiDataReqHandler
                0x000138f2       0x74 ../BitCloud_ZIGBIT_1_7_0/BitCloud/Components/../lib\libBc_All_ZigBit_Atmega1281_Rf230_8Mhz_Gcc.a(machwiDataHandler.o)
                0x000138f2                machwiDataReqHandler
 .text.machwdDataConfirm
                0x00013966       0x38 ../BitCloud_ZIGBIT_1_7_0/BitCloud/Components/../lib\libBc_All_ZigBit_Atmega1281_Rf230_8Mhz_Gcc.a(machwiDataHandler.o)
 .text.machwiResetHwdReqMemPool
                0x0001399e        0xe ../BitCloud_ZIGBIT_1_7_0/BitCloud/Components/../lib\libBc_All_ZigBit_Atmega1281_Rf230_8Mhz_Gcc.a(machwiHwdReqMemPool.o)
                0x0001399e                machwiResetHwdReqMemPool
 .text.machwiReserveReqMem
                0x000139ac       0x92 ../BitCloud_ZIGBIT_1_7_0/BitCloud/Components/../lib\libBc_All_ZigBit_Atmega1281_Rf230_8Mhz_Gcc.a(machwiHwdReqMemPool.o)
                0x000139ac                machwiReserveReqMem
 .text.machwiGetReqMem
                0x00013a3e       0x64 ../BitCloud_ZIGBIT_1_7_0/BitCloud/Components/../lib\libBc_All_ZigBit_Atmega1281_Rf230_8Mhz_Gcc.a(machwiHwdReqMemPool.o)
                0x00013a3e                machwiGetReqMem
 .text.machwiReleaseReqMem
                0x00013aa2       0x4e ../BitCloud_ZIGBIT_1_7_0/BitCloud/Components/../lib\libBc_All_ZigBit_Atmega1281_Rf230_8Mhz_Gcc.a(machwiHwdReqMemPool.o)
                0x00013aa2                machwiReleaseReqMem
 .text.NWK_IsActiveTransaction
                0x00013af0       0x20 ../BitCloud_ZIGBIT_1_7_0/BitCloud/Components/../lib\libBc_All_ZigBit_Atmega1281_Rf230_8Mhz_Gcc.a(nwkStateMachine.o)
                0x00013af0                NWK_IsActiveTransaction
 .text.PHY_EdReq
                0x00013b10       0xa2 ../BitCloud_ZIGBIT_1_7_0/BitCloud/Components/../lib\libBc_All_ZigBit_Atmega1281_Rf230_8Mhz_Gcc.a(phyEd.o)
                0x00013b10                PHY_EdReq
 .text.phySetRTimerSource
                0x00013bb2        0x6 ../BitCloud_ZIGBIT_1_7_0/BitCloud/Components/../lib\libBc_All_ZigBit_Atmega1281_Rf230_8Mhz_Gcc.a(phyRtimerIrqDispatcher.o)
                0x00013bb2                phySetRTimerSource
 .text.phyDispatcheRTimerEvent
                0x00013bb8      0x3e2 ../BitCloud_ZIGBIT_1_7_0/BitCloud/Components/../lib\libBc_All_ZigBit_Atmega1281_Rf230_8Mhz_Gcc.a(phyRtimerIrqDispatcher.o)
                0x00013bb8                phyDispatcheRTimerEvent
 .text.CS_GetMemory
                0x00013f9a       0x8a ../BitCloud_ZIGBIT_1_7_0/BitCloud/Components/./ConfigServer/lib\libConfigServer.a(configServer.o)
                0x00013f9a                CS_GetMemory
 .text.CS_PdsDefaultValue
                0x00014024       0xd0 ../BitCloud_ZIGBIT_1_7_0/BitCloud/Components/./ConfigServer/lib\libConfigServer.a(configServer.o)
                0x00014024                CS_PdsDefaultValue
 .text.CS_Init  0x000140f4        0x6 ../BitCloud_ZIGBIT_1_7_0/BitCloud/Components/./ConfigServer/lib\libConfigServer.a(configServer.o)
                0x000140f4                CS_Init
 .text.CS_WriteParameter
                0x000140fa      0x2a0 ../BitCloud_ZIGBIT_1_7_0/BitCloud/Components/./ConfigServer/lib\libConfigServer.a(configServer.o)
                0x000140fa                CS_WriteParameter
 .text.CS_ReadParameter
                0x0001439a      0x21a ../BitCloud_ZIGBIT_1_7_0/BitCloud/Components/./ConfigServer/lib\libConfigServer.a(configServer.o)
                0x0001439a                CS_ReadParameter
 .text.pdsDummy
                0x000145b4        0x2 ../BitCloud_ZIGBIT_1_7_0/BitCloud/Components/./PersistDataServer/lib\libPersistDataServer.a(pdsDataServer.o)
                0x000145b4                pdsDummy
 .text.PDS_SetToDefault
                0x000145b6      0x102 ../BitCloud_ZIGBIT_1_7_0/BitCloud/Components/./PersistDataServer/lib\libPersistDataServer.a(pdsDataServer.o)
                0x000145b6                PDS_SetToDefault
 .text.PDS_ReadParamFromEeprom
                0x000146b8       0xa0 ../BitCloud_ZIGBIT_1_7_0/BitCloud/Components/./PersistDataServer/lib\libPersistDataServer.a(pdsDataServer.o)
                0x000146b8                PDS_ReadParamFromEeprom
 .text.PDS_Init
                0x00014758       0x5a ../BitCloud_ZIGBIT_1_7_0/BitCloud/Components/./PersistDataServer/lib\libPersistDataServer.a(pdsDataServer.o)
                0x00014758                PDS_Init
 .text.pdsGetId
                0x000147b2       0xcc ../BitCloud_ZIGBIT_1_7_0/BitCloud/Components/./PersistDataServer/lib\libPersistDataServer.a(pdsWriteData.o)
                0x000147b2                pdsGetId
 .text.pdsCsMemoryCompare
                0x0001487e       0xbc ../BitCloud_ZIGBIT_1_7_0/BitCloud/Components/./PersistDataServer/lib\libPersistDataServer.a(pdsWriteData.o)
                0x0001487e                pdsCsMemoryCompare
 .text.pdsCsVariableCompare
                0x0001493a       0x76 ../BitCloud_ZIGBIT_1_7_0/BitCloud/Components/./PersistDataServer/lib\libPersistDataServer.a(pdsWriteData.o)
                0x0001493a                pdsCsVariableCompare
 .text.pdsNeedSaveParam
                0x000149b0       0x68 ../BitCloud_ZIGBIT_1_7_0/BitCloud/Components/./PersistDataServer/lib\libPersistDataServer.a(pdsWriteData.o)
                0x000149b0                pdsNeedSaveParam
 .text.pdsStartPdsTimer
                0x00014a18       0x3e ../BitCloud_ZIGBIT_1_7_0/BitCloud/Components/./PersistDataServer/lib\libPersistDataServer.a(pdsWriteData.o)
                0x00014a18                pdsStartPdsTimer
 .text.pdsStartPersistServer
                0x00014a56       0x10 ../BitCloud_ZIGBIT_1_7_0/BitCloud/Components/./PersistDataServer/lib\libPersistDataServer.a(pdsWriteData.o)
                0x00014a56                pdsStartPersistServer
 .text.pdsOnTimerSave
                0x00014a66       0x34 ../BitCloud_ZIGBIT_1_7_0/BitCloud/Components/./PersistDataServer/lib\libPersistDataServer.a(pdsWriteData.o)
                0x00014a66                pdsOnTimerSave
 .text.pdsWaitMemoryFree
                0x00014a9a       0x10 ../BitCloud_ZIGBIT_1_7_0/BitCloud/Components/./PersistDataServer/lib\libPersistDataServer.a(pdsCrcService.o)
                0x00014a9a                pdsWaitMemoryFree
 .text.pdsReadCrc
                0x00014aaa       0x94 ../BitCloud_ZIGBIT_1_7_0/BitCloud/Components/./PersistDataServer/lib\libPersistDataServer.a(pdsCrcService.o)
                0x00014aaa                pdsReadCrc
 .text.pdsCheckCrc
                0x00014b3e       0x92 ../BitCloud_ZIGBIT_1_7_0/BitCloud/Components/./PersistDataServer/lib\libPersistDataServer.a(pdsCrcService.o)
                0x00014b3e                pdsCheckCrc
 .text.pdsWriteCrc
                0x00014bd0       0xc2 ../BitCloud_ZIGBIT_1_7_0/BitCloud/Components/./PersistDataServer/lib\libPersistDataServer.a(pdsCrcService.o)
                0x00014bd0                pdsWriteCrc
 .text.TIIstop  0x00014c92       0x5c ../BitCloud_ZIGBIT_1_7_0/BitCloud/Components/./BSP/lib\libBSPMeshBean.a(bspTII.o)
                0x00014c92                TIIstop
 .text.TIIstartCont
                0x00014cee       0x54 ../BitCloud_ZIGBIT_1_7_0/BitCloud/Components/./BSP/lib\libBSPMeshBean.a(bspTII.o)
                0x00014cee                TIIstartCont
 .text.TIIgetCHNR
                0x00014d42       0x4a ../BitCloud_ZIGBIT_1_7_0/BitCloud/Components/./BSP/lib\libBSPMeshBean.a(bspTII.o)
                0x00014d42                TIIgetCHNR
 .text.TIIgetID
                0x00014d8c       0x4a ../BitCloud_ZIGBIT_1_7_0/BitCloud/Components/./BSP/lib\libBSPMeshBean.a(bspTII.o)
                0x00014d8c                TIIgetID
 .text.goIdle   0x00014dd6        0xe ../BitCloud_ZIGBIT_1_7_0/BitCloud/Components/./BSP/lib\libBSPMeshBean.a(bspTII.o)
                0x00014dd6                goIdle
 .text.irqCallback
                0x00014de4       0x50 ../BitCloud_ZIGBIT_1_7_0/BitCloud/Components/./BSP/lib\libBSPMeshBean.a(bspTII.o)
                0x00014de4                irqCallback
 .text.bspTIIhandler
                0x00014e34      0x1b4 ../BitCloud_ZIGBIT_1_7_0/BitCloud/Components/./BSP/lib\libBSPMeshBean.a(bspTII.o)
                0x00014e34                bspTIIhandler
 .text.spiCallback
                0x00014fe8      0x120 ../BitCloud_ZIGBIT_1_7_0/BitCloud/Components/./BSP/lib\libBSPMeshBean.a(bspTII.o)
                0x00014fe8                spiCallback
 .text.openTII  0x00015108       0x76 ../BitCloud_ZIGBIT_1_7_0/BitCloud/Components/./BSP/lib\libBSPMeshBean.a(bspTII.o)
                0x00015108                openTII
 .text.BSP_TaskHandler
                0x0001517e       0x34 ../BitCloud_ZIGBIT_1_7_0/BitCloud/Components/./BSP/lib\libBSPMeshBean.a(bspTaskManager.o)
                0x0001517e                BSP_TaskHandler
 .text.halWakeupHandler
                0x000151b2       0x40 ../BitCloud_ZIGBIT_1_7_0/BitCloud/Components/../lib\libHAL_ZigBit_Atmega1281_8Mhz_Gcc.a(sleep.o)
                0x000151b2                halWakeupHandler
 .text.HAL_Sleep
                0x000151f2       0xe8 ../BitCloud_ZIGBIT_1_7_0/BitCloud/Components/../lib\libHAL_ZigBit_Atmega1281_8Mhz_Gcc.a(sleep.o)
                0x000151f2                HAL_Sleep
 .text.halPowerOn
                0x000152da       0x5a ../BitCloud_ZIGBIT_1_7_0/BitCloud/Components/../lib\libHAL_ZigBit_Atmega1281_8Mhz_Gcc.a(sleep.o)
                0x000152da                halPowerOn
 .text.halPowerOff
                0x00015334       0xc8 ../BitCloud_ZIGBIT_1_7_0/BitCloud/Components/../lib\libHAL_ZigBit_Atmega1281_8Mhz_Gcc.a(sleep.o)
                0x00015334                halPowerOff
 .text.halCalibrateInternalRc
                0x000153fc       0xdc ../BitCloud_ZIGBIT_1_7_0/BitCloud/Components/../lib\libHAL_ZigBit_Atmega1281_8Mhz_Gcc.a(calibration.o)
                0x000153fc                halCalibrateInternalRc
 .text.HAL_CalibrateMainClock
                0x000154d8        0xe ../BitCloud_ZIGBIT_1_7_0/BitCloud/Components/../lib\libHAL_ZigBit_Atmega1281_8Mhz_Gcc.a(calibration.o)
                0x000154d8                HAL_CalibrateMainClock
 .text.halStartingCalibrate
                0x000154e6       0x22 ../BitCloud_ZIGBIT_1_7_0/BitCloud/Components/../lib\libHAL_ZigBit_Atmega1281_8Mhz_Gcc.a(calibration.o)
                0x000154e6                halStartingCalibrate
 .text.HAL_Init
                0x00015508       0x1c ../BitCloud_ZIGBIT_1_7_0/BitCloud/Components/../lib\libHAL_ZigBit_Atmega1281_8Mhz_Gcc.a(halInit.o)
                0x00015508                HAL_Init
 .text.HAL_InitRfSpi
                0x00015524       0x16 ../BitCloud_ZIGBIT_1_7_0/BitCloud/Components/../lib\libHAL_ZigBit_Atmega1281_8Mhz_Gcc.a(halRfSpi.o)
                0x00015524                HAL_InitRfSpi
 .text.HAL_WriteByteRfSpi
                0x0001553a       0x2a ../BitCloud_ZIGBIT_1_7_0/BitCloud/Components/../lib\libHAL_ZigBit_Atmega1281_8Mhz_Gcc.a(halRfSpi.o)
                0x0001553a                HAL_WriteByteRfSpi
 .text.HAL_ClearRfIrqFlag
                0x00015564        0x6 ../BitCloud_ZIGBIT_1_7_0/BitCloud/Components/../lib\libHAL_ZigBit_Atmega1281_8Mhz_Gcc.a(halRfCtrl.o)
                0x00015564                HAL_ClearRfIrqFlag
 .text.HAL_EnableRfIrq
                0x0001556a        0x4 ../BitCloud_ZIGBIT_1_7_0/BitCloud/Components/../lib\libHAL_ZigBit_Atmega1281_8Mhz_Gcc.a(halRfCtrl.o)
                0x0001556a                HAL_EnableRfIrq
 .text.HAL_DisableRfIrq
                0x0001556e        0x8 ../BitCloud_ZIGBIT_1_7_0/BitCloud/Components/../lib\libHAL_ZigBit_Atmega1281_8Mhz_Gcc.a(halRfCtrl.o)
                0x0001556e                HAL_DisableRfIrq
 .text.HAL_SetRfRst
                0x00015576        0x4 ../BitCloud_ZIGBIT_1_7_0/BitCloud/Components/../lib\libHAL_ZigBit_Atmega1281_8Mhz_Gcc.a(halRfCtrl.o)
                0x00015576                HAL_SetRfRst
 .text.HAL_ClearRfRst
                0x0001557a        0x4 ../BitCloud_ZIGBIT_1_7_0/BitCloud/Components/../lib\libHAL_ZigBit_Atmega1281_8Mhz_Gcc.a(halRfCtrl.o)
                0x0001557a                HAL_ClearRfRst
 .text.HAL_InitRfPins
                0x0001557e        0xe ../BitCloud_ZIGBIT_1_7_0/BitCloud/Components/../lib\libHAL_ZigBit_Atmega1281_8Mhz_Gcc.a(halRfCtrl.o)
                0x0001557e                HAL_InitRfPins
 .text.HAL_InitRfIrq
                0x0001558c        0xc ../BitCloud_ZIGBIT_1_7_0/BitCloud/Components/../lib\libHAL_ZigBit_Atmega1281_8Mhz_Gcc.a(halRfCtrl.o)
                0x0001558c                HAL_InitRfIrq
 .text.HAL_GetRfFreq
                0x00015598        0x4 ../BitCloud_ZIGBIT_1_7_0/BitCloud/Components/../lib\libHAL_ZigBit_Atmega1281_8Mhz_Gcc.a(halRfCtrl.o)
                0x00015598                HAL_GetRfFreq
 .text.halWaitRadio
                0x0001559c       0x1e ../BitCloud_ZIGBIT_1_7_0/BitCloud/Components/../lib\libHAL_ZigBit_Atmega1281_8Mhz_Gcc.a(halRfCtrl.o)
                0x0001559c                halWaitRadio
 .text.HAL_Delay
                0x000155ba        0x6 ../BitCloud_ZIGBIT_1_7_0/BitCloud/Components/../lib\libHAL_ZigBit_Atmega1281_8Mhz_Gcc.a(halRfCtrl.o)
                0x000155ba                HAL_Delay
 .text.HAL_ReadUid
                0x000155c0       0x56 ../BitCloud_ZIGBIT_1_7_0/BitCloud/Components/../lib\libHAL_ZigBit_Atmega1281_8Mhz_Gcc.a(halUid.o)
                0x000155c0                HAL_ReadUid
 .text.__vector_6
                0x00015616       0x50 ../BitCloud_ZIGBIT_1_7_0/BitCloud/Components/../lib\libHAL_ZigBit_Atmega1281_8Mhz_Gcc.a(halMacIsr.o)
                0x00015616                __vector_6
 .text.__vector_43
                0x00015666       0xb8 ../BitCloud_ZIGBIT_1_7_0/BitCloud/Components/../lib\libHAL_ZigBit_Atmega1281_8Mhz_Gcc.a(halMacIsr.o)
                0x00015666                __vector_43
 .text.HAL_InitMacIsr
                0x0001571e        0xc ../BitCloud_ZIGBIT_1_7_0/BitCloud/Components/../lib\libHAL_ZigBit_Atmega1281_8Mhz_Gcc.a(halMacIsr.o)
                0x0001571e                HAL_InitMacIsr
 .text.HAL_GetSystemTime
                0x0001572a       0x4e ../BitCloud_ZIGBIT_1_7_0/BitCloud/Components/../lib\libHAL_ZigBit_Atmega1281_8Mhz_Gcc.a(appTimer.o)
                0x0001572a                HAL_GetSystemTime
 .text.HAL_StopAppTimer
                0x00015778       0x4a ../BitCloud_ZIGBIT_1_7_0/BitCloud/Components/../lib\libHAL_ZigBit_Atmega1281_8Mhz_Gcc.a(appTimer.o)
                0x00015778                HAL_StopAppTimer
 .text.halAppTimerHandler
                0x000157c2       0x8a ../BitCloud_ZIGBIT_1_7_0/BitCloud/Components/../lib\libHAL_ZigBit_Atmega1281_8Mhz_Gcc.a(appTimer.o)
                0x000157c2                halAppTimerHandler
 .text.HAL_StartAppTimer
                0x0001584c       0x52 ../BitCloud_ZIGBIT_1_7_0/BitCloud/Components/../lib\libHAL_ZigBit_Atmega1281_8Mhz_Gcc.a(appTimer.o)
                0x0001584c                HAL_StartAppTimer
 .text.HAL_TaskHandler
                0x0001589e      0x156 ../BitCloud_ZIGBIT_1_7_0/BitCloud/Components/../lib\libHAL_ZigBit_Atmega1281_8Mhz_Gcc.a(halTaskManager.o)
                0x0001589e                HAL_TaskHandler
 .text.halPostUsartTask
                0x000159f4       0x3c ../BitCloud_ZIGBIT_1_7_0/BitCloud/Components/../lib\libHAL_ZigBit_Atmega1281_8Mhz_Gcc.a(usart.o)
                0x000159f4                halPostUsartTask
 .text.halUsartRxBufferFiller
                0x00015a30      0x188 ../BitCloud_ZIGBIT_1_7_0/BitCloud/Components/../lib\libHAL_ZigBit_Atmega1281_8Mhz_Gcc.a(usart.o)
                0x00015a30                halUsartRxBufferFiller
 .text.HAL_WriteUsart
                0x00015bb8      0x15e ../BitCloud_ZIGBIT_1_7_0/BitCloud/Components/../lib\libHAL_ZigBit_Atmega1281_8Mhz_Gcc.a(usart.o)
                0x00015bb8                HAL_WriteUsart
 .text.halSigUsartTransmissionComplete
                0x00015d16       0x7a ../BitCloud_ZIGBIT_1_7_0/BitCloud/Components/../lib\libHAL_ZigBit_Atmega1281_8Mhz_Gcc.a(usart.o)
                0x00015d16                halSigUsartTransmissionComplete
 .text.halSigUsartReceptionComplete
                0x00015d90       0xa4 ../BitCloud_ZIGBIT_1_7_0/BitCloud/Components/../lib\libHAL_ZigBit_Atmega1281_8Mhz_Gcc.a(usart.o)
 .text.isChannelCorrect
                0x00015e34       0x14 ../BitCloud_ZIGBIT_1_7_0/BitCloud/Components/../lib\libHAL_ZigBit_Atmega1281_8Mhz_Gcc.a(usart.o)
                0x00015e34                isChannelCorrect
 .text.findDescriptor
                0x00015e48       0x2a ../BitCloud_ZIGBIT_1_7_0/BitCloud/Components/../lib\libHAL_ZigBit_Atmega1281_8Mhz_Gcc.a(usart.o)
                0x00015e48                findDescriptor
 .text.findChannel
                0x00015e72       0x3a ../BitCloud_ZIGBIT_1_7_0/BitCloud/Components/../lib\libHAL_ZigBit_Atmega1281_8Mhz_Gcc.a(usart.o)
                0x00015e72                findChannel
 .text.halUsartTaskUsart0Txc
                0x00015eac        0x8 ../BitCloud_ZIGBIT_1_7_0/BitCloud/Components/../lib\libHAL_ZigBit_Atmega1281_8Mhz_Gcc.a(usart.o)
 .text.halUsartTaskUsart0Rxc
                0x00015eb4        0x8 ../BitCloud_ZIGBIT_1_7_0/BitCloud/Components/../lib\libHAL_ZigBit_Atmega1281_8Mhz_Gcc.a(usart.o)
 .text.halUsartTaskUsart1Txc
                0x00015ebc        0x8 ../BitCloud_ZIGBIT_1_7_0/BitCloud/Components/../lib\libHAL_ZigBit_Atmega1281_8Mhz_Gcc.a(usart.o)
 .text.halUsartTaskUsart1Rxc
                0x00015ec4        0x8 ../BitCloud_ZIGBIT_1_7_0/BitCloud/Components/../lib\libHAL_ZigBit_Atmega1281_8Mhz_Gcc.a(usart.o)
 .text.halUsartHwController
                0x00015ecc      0x186 ../BitCloud_ZIGBIT_1_7_0/BitCloud/Components/../lib\libHAL_ZigBit_Atmega1281_8Mhz_Gcc.a(usart.o)
 .text.hwControlPinsPollCallback
                0x00016052        0x8 ../BitCloud_ZIGBIT_1_7_0/BitCloud/Components/../lib\libHAL_ZigBit_Atmega1281_8Mhz_Gcc.a(usart.o)
                0x00016052                hwControlPinsPollCallback
 .text.halUsartTaskUsart1Dre
                0x0001605a        0x8 ../BitCloud_ZIGBIT_1_7_0/BitCloud/Components/../lib\libHAL_ZigBit_Atmega1281_8Mhz_Gcc.a(usart.o)
 .text.halUsartTaskUsart0Dre
                0x00016062        0x8 ../BitCloud_ZIGBIT_1_7_0/BitCloud/Components/../lib\libHAL_ZigBit_Atmega1281_8Mhz_Gcc.a(usart.o)
 .text.HAL_OpenUsart
                0x0001606a      0x14e ../BitCloud_ZIGBIT_1_7_0/BitCloud/Components/../lib\libHAL_ZigBit_Atmega1281_8Mhz_Gcc.a(usart.o)
                0x0001606a                HAL_OpenUsart
 .text.halSigUsartHandler
                0x000161b8       0x8a ../BitCloud_ZIGBIT_1_7_0/BitCloud/Components/../lib\libHAL_ZigBit_Atmega1281_8Mhz_Gcc.a(usart.o)
                0x000161b8                halSigUsartHandler
 .text.halW1CRC
                0x00016242       0x54 ../BitCloud_ZIGBIT_1_7_0/BitCloud/Components/../lib\libHAL_ZigBit_Atmega1281_8Mhz_Gcc.a(w1.o)
                0x00016242                halW1CRC
 .text.halSearchW1
                0x00016296       0xfa ../BitCloud_ZIGBIT_1_7_0/BitCloud/Components/../lib\libHAL_ZigBit_Atmega1281_8Mhz_Gcc.a(w1.o)
                0x00016296                halSearchW1
 .text.halCommSearchW1
                0x00016390       0xb2 ../BitCloud_ZIGBIT_1_7_0/BitCloud/Components/../lib\libHAL_ZigBit_Atmega1281_8Mhz_Gcc.a(w1.o)
                0x00016390                halCommSearchW1
 .text.HAL_SearchW1Device
                0x00016442       0x1e ../BitCloud_ZIGBIT_1_7_0/BitCloud/Components/../lib\libHAL_ZigBit_Atmega1281_8Mhz_Gcc.a(w1.o)
                0x00016442                HAL_SearchW1Device
 .text.HAL_EnableIrq
                0x00016460       0x3e ../BitCloud_ZIGBIT_1_7_0/BitCloud/Components/../lib\libHAL_ZigBit_Atmega1281_8Mhz_Gcc.a(irq.o)
                0x00016460                HAL_EnableIrq
 .text.HAL_DisableIrq
                0x0001649e       0x40 ../BitCloud_ZIGBIT_1_7_0/BitCloud/Components/../lib\libHAL_ZigBit_Atmega1281_8Mhz_Gcc.a(irq.o)
                0x0001649e                HAL_DisableIrq
 .text.HAL_RegisterIrq
                0x000164de       0x5a ../BitCloud_ZIGBIT_1_7_0/BitCloud/Components/../lib\libHAL_ZigBit_Atmega1281_8Mhz_Gcc.a(irq.o)
                0x000164de                HAL_RegisterIrq
 .text.halI2cBusReset
                0x00016538       0x30 ../BitCloud_ZIGBIT_1_7_0/BitCloud/Components/../lib\libHAL_ZigBit_Atmega1281_8Mhz_Gcc.a(i2cPacket.o)
                0x00016538                halI2cBusReset
 .text.halSendStartDoneI2c
                0x00016568       0x6c ../BitCloud_ZIGBIT_1_7_0/BitCloud/Components/../lib\libHAL_ZigBit_Atmega1281_8Mhz_Gcc.a(i2cPacket.o)
                0x00016568                halSendStartDoneI2c
 .text.halWriteData
                0x000165d4       0x60 ../BitCloud_ZIGBIT_1_7_0/BitCloud/Components/../lib\libHAL_ZigBit_Atmega1281_8Mhz_Gcc.a(i2cPacket.o)
                0x000165d4                halWriteData
 .text.halWriteDoneI2c
                0x00016634       0xb0 ../BitCloud_ZIGBIT_1_7_0/BitCloud/Components/../lib\libHAL_ZigBit_Atmega1281_8Mhz_Gcc.a(i2cPacket.o)
                0x00016634                halWriteDoneI2c
 .text.halMasterReadWriteAddressAckI2c
                0x000166e4       0x5e ../BitCloud_ZIGBIT_1_7_0/BitCloud/Components/../lib\libHAL_ZigBit_Atmega1281_8Mhz_Gcc.a(i2cPacket.o)
                0x000166e4                halMasterReadWriteAddressAckI2c
 .text.halReadDoneI2c
                0x00016742       0x84 ../BitCloud_ZIGBIT_1_7_0/BitCloud/Components/../lib\libHAL_ZigBit_Atmega1281_8Mhz_Gcc.a(i2cPacket.o)
                0x00016742                halReadDoneI2c
 .text.halReadLastByteDoneI2c
                0x000167c6       0x5c ../BitCloud_ZIGBIT_1_7_0/BitCloud/Components/../lib\libHAL_ZigBit_Atmega1281_8Mhz_Gcc.a(i2cPacket.o)
                0x000167c6                halReadLastByteDoneI2c
 .text.halSig2WireSerialHandler
                0x00016822       0x38 ../BitCloud_ZIGBIT_1_7_0/BitCloud/Components/../lib\libHAL_ZigBit_Atmega1281_8Mhz_Gcc.a(i2cPacket.o)
                0x00016822                halSig2WireSerialHandler
 .text.HAL_ReadEeprom
                0x0001685a       0xc4 ../BitCloud_ZIGBIT_1_7_0/BitCloud/Components/../lib\libHAL_ZigBit_Atmega1281_8Mhz_Gcc.a(eeprom.o)
                0x0001685a                HAL_ReadEeprom
 .text.HAL_IsEepromBusy
                0x0001691e       0x10 ../BitCloud_ZIGBIT_1_7_0/BitCloud/Components/../lib\libHAL_ZigBit_Atmega1281_8Mhz_Gcc.a(eeprom.o)
                0x0001691e                HAL_IsEepromBusy
 .text.halSigEepromReadyHandler
                0x0001692e       0x64 ../BitCloud_ZIGBIT_1_7_0/BitCloud/Components/../lib\libHAL_ZigBit_Atmega1281_8Mhz_Gcc.a(eeprom.o)
                0x0001692e                halSigEepromReadyHandler
 .text.HAL_WriteEeprom
                0x00016992       0xf2 ../BitCloud_ZIGBIT_1_7_0/BitCloud/Components/../lib\libHAL_ZigBit_Atmega1281_8Mhz_Gcc.a(eeprom.o)
                0x00016992                HAL_WriteEeprom
 .text.halAddTimer
                0x00016a84       0x18 ../BitCloud_ZIGBIT_1_7_0/BitCloud/Components/../lib\libHAL_ZigBit_Atmega1281_8Mhz_Gcc.a(timer.o)
                0x00016a84                halAddTimer
 .text.halRemoveTimer
                0x00016a9c       0x3c ../BitCloud_ZIGBIT_1_7_0/BitCloud/Components/../lib\libHAL_ZigBit_Atmega1281_8Mhz_Gcc.a(timer.o)
                0x00016a9c                halRemoveTimer
 .text.halFindPrevTimer
                0x00016ad8       0x1e ../BitCloud_ZIGBIT_1_7_0/BitCloud/Components/../lib\libHAL_ZigBit_Atmega1281_8Mhz_Gcc.a(timer.o)
                0x00016ad8                halFindPrevTimer
 .text.halClearSleepTimerList
                0x00016af6        0xa ../BitCloud_ZIGBIT_1_7_0/BitCloud/Components/../lib\libHAL_ZigBit_Atmega1281_8Mhz_Gcc.a(sleepTimer.o)
                0x00016af6                halClearSleepTimerList
 .text.halAsyncTimerHandler
                0x00016b00       0x52 ../BitCloud_ZIGBIT_1_7_0/BitCloud/Components/../lib\libHAL_ZigBit_Atmega1281_8Mhz_Gcc.a(sleepTimer.o)
                0x00016b00                halAsyncTimerHandler
 .text.HAL_StartSleepTimer
                0x00016b52       0x6e ../BitCloud_ZIGBIT_1_7_0/BitCloud/Components/../lib\libHAL_ZigBit_Atmega1281_8Mhz_Gcc.a(sleepTimer.o)
                0x00016b52                HAL_StartSleepTimer
 .text.halSigAdcHandler
                0x00016bc0       0x1e ../BitCloud_ZIGBIT_1_7_0/BitCloud/Components/../lib\libHAL_ZigBit_Atmega1281_8Mhz_Gcc.a(adc.o)
                0x00016bc0                halSigAdcHandler
 .text.HAL_ReadSpi
                0x00016bde       0xa2 ../BitCloud_ZIGBIT_1_7_0/BitCloud/Components/../lib\libHAL_ZigBit_Atmega1281_8Mhz_Gcc.a(spi.o)
                0x00016bde                HAL_ReadSpi
 .text.HAL_WriteSpi
                0x00016c80       0xa2 ../BitCloud_ZIGBIT_1_7_0/BitCloud/Components/../lib\libHAL_ZigBit_Atmega1281_8Mhz_Gcc.a(spi.o)
                0x00016c80                HAL_WriteSpi
 .text.HAL_OpenSpi
                0x00016d22       0x8a ../BitCloud_ZIGBIT_1_7_0/BitCloud/Components/../lib\libHAL_ZigBit_Atmega1281_8Mhz_Gcc.a(spi.o)
                0x00016d22                HAL_OpenSpi
 .text.halInitAppClock
                0x00016dac       0x26 ../BitCloud_ZIGBIT_1_7_0/BitCloud/Components/../lib\libHAL_ZigBit_Atmega1281_8Mhz_Gcc.a(halAppClock.o)
                0x00016dac                halInitAppClock
 .text.halGetTimeOfAppTimer
                0x00016dd2       0x62 ../BitCloud_ZIGBIT_1_7_0/BitCloud/Components/../lib\libHAL_ZigBit_Atmega1281_8Mhz_Gcc.a(halAppClock.o)
                0x00016dd2                halGetTimeOfAppTimer
 .text.halAdjustSleepInterval
                0x00016e34       0x4c ../BitCloud_ZIGBIT_1_7_0/BitCloud/Components/../lib\libHAL_ZigBit_Atmega1281_8Mhz_Gcc.a(halAppClock.o)
                0x00016e34                halAdjustSleepInterval
 .text.__vector_42
                0x00016e80       0x4c ../BitCloud_ZIGBIT_1_7_0/BitCloud/Components/../lib\libHAL_ZigBit_Atmega1281_8Mhz_Gcc.a(halAppClock.o)
                0x00016e80                __vector_42
 .text.halGetClockSource
                0x00016ecc        0x6 ../BitCloud_ZIGBIT_1_7_0/BitCloud/Components/../lib\libHAL_ZigBit_Atmega1281_8Mhz_Gcc.a(halClkCtrl.o)
                0x00016ecc                halGetClockSource
 .text.halInitFreq
                0x00016ed2       0x4c ../BitCloud_ZIGBIT_1_7_0/BitCloud/Components/../lib\libHAL_ZigBit_Atmega1281_8Mhz_Gcc.a(halClkCtrl.o)
                0x00016ed2                halInitFreq
 .text.halSetUsartConfig
                0x00016f1e       0xd4 ../BitCloud_ZIGBIT_1_7_0/BitCloud/Components/../lib\libHAL_ZigBit_Atmega1281_8Mhz_Gcc.a(halUsart.o)
                0x00016f1e                halSetUsartConfig
 .text.__vector_5
                0x00016ff2       0x66 ../BitCloud_ZIGBIT_1_7_0/BitCloud/Components/../lib\libHAL_ZigBit_Atmega1281_8Mhz_Gcc.a(halUsart.o)
                0x00016ff2                __vector_5
 .text.__vector_36
                0x00017058       0x64 ../BitCloud_ZIGBIT_1_7_0/BitCloud/Components/../lib\libHAL_ZigBit_Atmega1281_8Mhz_Gcc.a(halUsart.o)
                0x00017058                __vector_36
 .text.__vector_38
                0x000170bc       0x5c ../BitCloud_ZIGBIT_1_7_0/BitCloud/Components/../lib\libHAL_ZigBit_Atmega1281_8Mhz_Gcc.a(halUsart.o)
                0x000170bc                __vector_38
 .text.__vector_37
                0x00017118       0x5c ../BitCloud_ZIGBIT_1_7_0/BitCloud/Components/../lib\libHAL_ZigBit_Atmega1281_8Mhz_Gcc.a(halUsart.o)
                0x00017118                __vector_37
 .text.__vector_25
                0x00017174       0x64 ../BitCloud_ZIGBIT_1_7_0/BitCloud/Components/../lib\libHAL_ZigBit_Atmega1281_8Mhz_Gcc.a(halUsart.o)
                0x00017174                __vector_25
 .text.__vector_27
                0x000171d8       0x5c ../BitCloud_ZIGBIT_1_7_0/BitCloud/Components/../lib\libHAL_ZigBit_Atmega1281_8Mhz_Gcc.a(halUsart.o)
                0x000171d8                __vector_27
 .text.__vector_26
                0x00017234       0x5c ../BitCloud_ZIGBIT_1_7_0/BitCloud/Components/../lib\libHAL_ZigBit_Atmega1281_8Mhz_Gcc.a(halUsart.o)
                0x00017234                __vector_26
 .text.halSetIrqConfig
                0x00017290       0x5e ../BitCloud_ZIGBIT_1_7_0/BitCloud/Components/../lib\libHAL_ZigBit_Atmega1281_8Mhz_Gcc.a(halIrq.o)
                0x00017290                halSetIrqConfig
 .text.__vector_8
                0x000172ee       0x5e ../BitCloud_ZIGBIT_1_7_0/BitCloud/Components/../lib\libHAL_ZigBit_Atmega1281_8Mhz_Gcc.a(halIrq.o)
                0x000172ee                __vector_8
 .text.__vector_7
                0x0001734c       0x5e ../BitCloud_ZIGBIT_1_7_0/BitCloud/Components/../lib\libHAL_ZigBit_Atmega1281_8Mhz_Gcc.a(halIrq.o)
                0x0001734c                __vector_7
 .text.__vector_39
                0x000173aa       0xd6 ../BitCloud_ZIGBIT_1_7_0/BitCloud/Components/../lib\libHAL_ZigBit_Atmega1281_8Mhz_Gcc.a(i2c.o)
                0x000173aa                __vector_39
 .text.halEepromWrite
                0x00017480       0x1e ../BitCloud_ZIGBIT_1_7_0/BitCloud/Components/../lib\libHAL_ZigBit_Atmega1281_8Mhz_Gcc.a(halEeprom.o)
                0x00017480                halEepromWrite
 .text.__vector_30
                0x0001749e       0x44 ../BitCloud_ZIGBIT_1_7_0/BitCloud/Components/../lib\libHAL_ZigBit_Atmega1281_8Mhz_Gcc.a(halEeprom.o)
                0x0001749e                __vector_30
 .text.halStartSleepTimerClock
                0x000174e2       0x48 ../BitCloud_ZIGBIT_1_7_0/BitCloud/Components/../lib\libHAL_ZigBit_Atmega1281_8Mhz_Gcc.a(halSleepTimerClock.o)
                0x000174e2                halStartSleepTimerClock
 .text.halStopSleepTimerClock
                0x0001752a       0x42 ../BitCloud_ZIGBIT_1_7_0/BitCloud/Components/../lib\libHAL_ZigBit_Atmega1281_8Mhz_Gcc.a(halSleepTimerClock.o)
                0x0001752a                halStopSleepTimerClock
 .text.halSetSleepTimerInterval
                0x0001756c       0x84 ../BitCloud_ZIGBIT_1_7_0/BitCloud/Components/../lib\libHAL_ZigBit_Atmega1281_8Mhz_Gcc.a(halSleepTimerClock.o)
                0x0001756c                halSetSleepTimerInterval
 .text.halGetTimeOfSleepTimer
                0x000175f0       0x9c ../BitCloud_ZIGBIT_1_7_0/BitCloud/Components/../lib\libHAL_ZigBit_Atmega1281_8Mhz_Gcc.a(halSleepTimerClock.o)
                0x000175f0                halGetTimeOfSleepTimer
 .text.halSleepTimerFrequency
                0x0001768c        0xa ../BitCloud_ZIGBIT_1_7_0/BitCloud/Components/../lib\libHAL_ZigBit_Atmega1281_8Mhz_Gcc.a(halSleepTimerClock.o)
                0x0001768c                halSleepTimerFrequency
 .text.halSleepSystemTimeSynchronize
                0x00017696       0x5e ../BitCloud_ZIGBIT_1_7_0/BitCloud/Components/../lib\libHAL_ZigBit_Atmega1281_8Mhz_Gcc.a(halSleepTimerClock.o)
                0x00017696                halSleepSystemTimeSynchronize
 .text.__vector_13
                0x000176f4       0x94 ../BitCloud_ZIGBIT_1_7_0/BitCloud/Components/../lib\libHAL_ZigBit_Atmega1281_8Mhz_Gcc.a(halSleepTimerClock.o)
                0x000176f4                __vector_13
 .text.__vector_15
                0x00017788      0x10c ../BitCloud_ZIGBIT_1_7_0/BitCloud/Components/../lib\libHAL_ZigBit_Atmega1281_8Mhz_Gcc.a(halSleepTimerClock.o)
                0x00017788                __vector_15
 .text.halWakeupFromIrq
                0x00017894       0x2e ../BitCloud_ZIGBIT_1_7_0/BitCloud/Components/../lib\libHAL_ZigBit_Atmega1281_8Mhz_Gcc.a(halSleepTimerClock.o)
                0x00017894                halWakeupFromIrq
 .text.__vector_29
                0x000178c2       0xca ../BitCloud_ZIGBIT_1_7_0/BitCloud/Components/../lib\libHAL_ZigBit_Atmega1281_8Mhz_Gcc.a(halAdc.o)
                0x000178c2                __vector_29
 .text.halSetSpiConfig
                0x0001798c       0x4c ../BitCloud_ZIGBIT_1_7_0/BitCloud/Components/../lib\libHAL_ZigBit_Atmega1281_8Mhz_Gcc.a(halSpi.o)
                0x0001798c                halSetSpiConfig
 .text.halSyncWriteData
                0x000179d8       0x3a ../BitCloud_ZIGBIT_1_7_0/BitCloud/Components/../lib\libHAL_ZigBit_Atmega1281_8Mhz_Gcc.a(halSpi.o)
                0x000179d8                halSyncWriteData
 .text.halSyncReadData
                0x00017a12       0x38 ../BitCloud_ZIGBIT_1_7_0/BitCloud/Components/../lib\libHAL_ZigBit_Atmega1281_8Mhz_Gcc.a(halSpi.o)
                0x00017a12                halSyncReadData
 .text.phyDispatcheRfInterrupt
                0x00017a4a      0x3ee ../BitCloud_ZIGBIT_1_7_0/BitCloud/Components/../lib\libBc_All_ZigBit_Atmega1281_Rf230_8Mhz_Gcc.a(phyRfIrqDispatcher.o)
                0x00017a4a                phyDispatcheRfInterrupt
 .text.libgcc   0x00017e38       0x3e c:/winavr-20090313/bin/../lib/gcc/avr/4.3.2/avr51\libgcc.a(_mulsi3.o)
                0x00017e38                __mulsi3
 .text.libgcc   0x00017e76       0x18 c:/winavr-20090313/bin/../lib/gcc/avr/4.3.2/avr51\libgcc.a(_udivmodqi4.o)
                0x00017e76                __udivmodqi4
 .text.libgcc   0x00017e8e       0x28 c:/winavr-20090313/bin/../lib/gcc/avr/4.3.2/avr51\libgcc.a(_udivmodhi4.o)
                0x00017e8e                __udivmodhi4
 .text.libgcc   0x00017eb6       0x26 c:/winavr-20090313/bin/../lib/gcc/avr/4.3.2/avr51\libgcc.a(_divmodhi4.o)
                0x00017eb6                __divmodhi4
                0x00017eb6                _div
 .text.libgcc   0x00017edc       0x44 c:/winavr-20090313/bin/../lib/gcc/avr/4.3.2/avr51\libgcc.a(_udivmodsi4.o)
                0x00017edc                __udivmodsi4
 .text.libgcc   0x00017f20       0x38 c:/winavr-20090313/bin/../lib/gcc/avr/4.3.2/avr51\libgcc.a(_prologue.o)
                0x00017f20                __prologue_saves__
 .text.libgcc   0x00017f58       0x36 c:/winavr-20090313/bin/../lib/gcc/avr/4.3.2/avr51\libgcc.a(_epilogue.o)
                0x00017f58                __epilogue_restores__
 .text.libgcc   0x00017f8e        0xc c:/winavr-20090313/bin/../lib/gcc/avr/4.3.2/avr51\libgcc.a(_tablejump.o)
                0x00017f92                __tablejump__
                0x00017f8e                __tablejump2__
 .text.libgcc   0x00017f9a       0x36 c:/winavr-20090313/bin/../lib/gcc/avr/4.3.2/avr51\libgcc.a(_divmodsi4.o)
                0x00017f9a                __divmodsi4
                0x00017fd0                PROVIDE (__text_end, .)

.data           0x00800200       0xf2 load address 0x00017fd0
                0x00800200                PROVIDE (__data_start, .)
 *(.data*)
 .data          0x00800200       0x18 ./objs/messages.o
 .data          0x00800218       0x4f ./objs/ncap_wilma.o
 .data          0x00800267       0x11 ./objs/nwkConfig.o
                0x00800268                rxOnWhenIdleFlag
                0x00800267                useStatAddr
 .data          0x00800278        0x4 ../BitCloud_ZIGBIT_1_7_0/BitCloud/Components/../lib\libBc_All_ZigBit_Atmega1281_Rf230_8Mhz_Gcc.a(apsControlManager.o)
 .data          0x0080027c       0x10 ../BitCloud_ZIGBIT_1_7_0/BitCloud/Components/../lib\libBc_All_ZigBit_Atmega1281_Rf230_8Mhz_Gcc.a(apsDataManager.o)
 .data          0x0080028c        0x6 ../BitCloud_ZIGBIT_1_7_0/BitCloud/Components/../lib\libBc_All_ZigBit_Atmega1281_Rf230_8Mhz_Gcc.a(nwkNeighborTable.o)
 .data          0x00800292        0x2 ../BitCloud_ZIGBIT_1_7_0/BitCloud/Components/../lib\libBc_All_ZigBit_Atmega1281_Rf230_8Mhz_Gcc.a(nwkTaskManager.o)
 .data          0x00800294       0x16 ../BitCloud_ZIGBIT_1_7_0/BitCloud/Components/../lib\libBc_All_ZigBit_Atmega1281_Rf230_8Mhz_Gcc.a(taskManager.o)
 .data          0x008002aa       0x12 ../BitCloud_ZIGBIT_1_7_0/BitCloud/Components/../lib\libBc_All_ZigBit_Atmega1281_Rf230_8Mhz_Gcc.a(zdoTaskManager.o)
                0x008002aa                zdoLocalTask
 .data          0x008002bc        0x4 ../BitCloud_ZIGBIT_1_7_0/BitCloud/Components/../lib\libBc_All_ZigBit_Atmega1281_Rf230_8Mhz_Gcc.a(machwdManager.o)
 .data          0x008002c0        0x1 ../BitCloud_ZIGBIT_1_7_0/BitCloud/Components/../lib\libBc_All_ZigBit_Atmega1281_Rf230_8Mhz_Gcc.a(phyRxFrame.o)
                0x008002c0                __rxByteCounterBaseMode
 .data          0x008002c1        0x1 ../BitCloud_ZIGBIT_1_7_0/BitCloud/Components/../lib\libBc_All_ZigBit_Atmega1281_Rf230_8Mhz_Gcc.a(phySetTrxState.o)
                0x008002c1                __phyTrxState
 .data          0x008002c2       0x28 ../BitCloud_ZIGBIT_1_7_0/BitCloud/Components/./ConfigServer/lib\libConfigServer.a(configServer.o)
                0x008002c2                csBitFields
 .data          0x008002ea        0x3 ../BitCloud_ZIGBIT_1_7_0/BitCloud/Components/./PersistDataServer/lib\libPersistDataServer.a(pdsWriteData.o)
                0x008002eb                pdsDataSize
                0x008002ea                pdsParamCount
 .data          0x008002ed        0x1 ../BitCloud_ZIGBIT_1_7_0/BitCloud/Components/./BSP/lib\libBSPMeshBean.a(bspTII.o)
 .data          0x008002ee        0x4 c:/winavr-20090313/bin/../lib/gcc/avr/4.3.2/../../../../avr/lib/avr51\libc.a(rand.o)
 *(.rodata*)
 *(.gnu.linkonce.d*)
                0x008002f2                . = ALIGN (0x2)
                0x008002f2                PROVIDE (__data_end, .)

.bss            0x008002f2     0x1318 load address 0x000180c2
                0x008002f2                PROVIDE (__bss_start, .)
 *(.bss*)
 .bss           0x008002f2       0xf6 ./objs/messages.o
 .bss           0x008003e8       0x39 ./objs/ncap_wilma.o
 .bss           0x00800421       0x3d ./objs/uart_buffer.o
 .bss           0x0080045e       0x12 ../BitCloud_ZIGBIT_1_7_0/BitCloud/Components/../lib\libBc_All_ZigBit_Atmega1281_Rf230_8Mhz_Gcc.a(apsControlManager.o)
 .bss           0x00800470      0x11a ../BitCloud_ZIGBIT_1_7_0/BitCloud/Components/../lib\libBc_All_ZigBit_Atmega1281_Rf230_8Mhz_Gcc.a(apsDataManager.o)
 .bss           0x0080058a        0x6 ../BitCloud_ZIGBIT_1_7_0/BitCloud/Components/../lib\libBc_All_ZigBit_Atmega1281_Rf230_8Mhz_Gcc.a(apsGroupManager.o)
 .bss           0x00800590        0x2 ../BitCloud_ZIGBIT_1_7_0/BitCloud/Components/../lib\libBc_All_ZigBit_Atmega1281_Rf230_8Mhz_Gcc.a(apsStateMachine.o)
 .bss           0x00800592        0x1 ../BitCloud_ZIGBIT_1_7_0/BitCloud/Components/../lib\libBc_All_ZigBit_Atmega1281_Rf230_8Mhz_Gcc.a(apsTaskManager.o)
 .bss           0x00800593        0x1 ../BitCloud_ZIGBIT_1_7_0/BitCloud/Components/../lib\libBc_All_ZigBit_Atmega1281_Rf230_8Mhz_Gcc.a(nwkTaskManager.o)
 .bss           0x00800594        0x2 ../BitCloud_ZIGBIT_1_7_0/BitCloud/Components/../lib\libBc_All_ZigBit_Atmega1281_Rf230_8Mhz_Gcc.a(taskManager.o)
                0x00800594                SYS_taskFlag
 .bss           0x00800596        0x6 ../BitCloud_ZIGBIT_1_7_0/BitCloud/Components/../lib\libBc_All_ZigBit_Atmega1281_Rf230_8Mhz_Gcc.a(apsBindManager.o)
 .bss           0x0080059c        0x2 ../BitCloud_ZIGBIT_1_7_0/BitCloud/Components/../lib\libBc_All_ZigBit_Atmega1281_Rf230_8Mhz_Gcc.a(machwdManager.o)
                0x0080059c                __wasPostTask
 .bss           0x0080059e        0x4 ../BitCloud_ZIGBIT_1_7_0/BitCloud/Components/../lib\libBc_All_ZigBit_Atmega1281_Rf230_8Mhz_Gcc.a(machwdSetHandler.o)
 .bss           0x008005a2        0x1 ../BitCloud_ZIGBIT_1_7_0/BitCloud/Components/../lib\libBc_All_ZigBit_Atmega1281_Rf230_8Mhz_Gcc.a(machwdTrxHandler.o)
 .bss           0x008005a3        0x2 ../BitCloud_ZIGBIT_1_7_0/BitCloud/Components/../lib\libBc_All_ZigBit_Atmega1281_Rf230_8Mhz_Gcc.a(machwdTxFrameHandler.o)
 .bss           0x008005a5        0x1 ../BitCloud_ZIGBIT_1_7_0/BitCloud/Components/../lib\libBc_All_ZigBit_Atmega1281_Rf230_8Mhz_Gcc.a(machwiScanHandler.o)
 .bss           0x008005a6        0x2 ../BitCloud_ZIGBIT_1_7_0/BitCloud/Components/../lib\libBc_All_ZigBit_Atmega1281_Rf230_8Mhz_Gcc.a(phyStateMachine.o)
                0x008005a6                __phyState
                0x008005a7                __wasRequest
 .bss           0x008005a8       0x8e ../BitCloud_ZIGBIT_1_7_0/BitCloud/Components/../lib\libBc_All_ZigBit_Atmega1281_Rf230_8Mhz_Gcc.a(zdoBindingManager.o)
 .bss           0x00800636        0x1 ../BitCloud_ZIGBIT_1_7_0/BitCloud/Components/../lib\libBc_All_ZigBit_Atmega1281_Rf230_8Mhz_Gcc.a(machwdEdHandler.o)
 .bss           0x00800637        0x4 ../BitCloud_ZIGBIT_1_7_0/BitCloud/Components/../lib\libBc_All_ZigBit_Atmega1281_Rf230_8Mhz_Gcc.a(machwdHandlerCtrl.o)
                0x00800639                __macRequest
                0x00800637                __handlers
 .bss           0x0080063b        0x1 ../BitCloud_ZIGBIT_1_7_0/BitCloud/Components/../lib\libBc_All_ZigBit_Atmega1281_Rf230_8Mhz_Gcc.a(phyRtimerIrqDispatcher.o)
 .bss           0x0080063c      0x6c8 ../BitCloud_ZIGBIT_1_7_0/BitCloud/Components/./ConfigServer/lib\libConfigServer.a(configServer.o)
 .bss           0x00800d04       0x13 ../BitCloud_ZIGBIT_1_7_0/BitCloud/Components/./PersistDataServer/lib\libPersistDataServer.a(pdsWriteData.o)
                0x00800d04                savingIsStarted
 .bss           0x00800d17       0x87 ../BitCloud_ZIGBIT_1_7_0/BitCloud/Components/./BSP/lib\libBSPMeshBean.a(bspTII.o)
 .bss           0x00800d9e        0x1 ../BitCloud_ZIGBIT_1_7_0/BitCloud/Components/./BSP/lib\libBSPMeshBean.a(bspTaskManager.o)
                0x00800d9e                bspTaskFlags0
 .bss           0x00800d9f        0x5 ../BitCloud_ZIGBIT_1_7_0/BitCloud/Components/../lib\libHAL_ZigBit_Atmega1281_8Mhz_Gcc.a(sleep.o)
                0x00800d9f                halWakeupFlag
 .bss           0x00800da4        0x2 ../BitCloud_ZIGBIT_1_7_0/BitCloud/Components/../lib\libHAL_ZigBit_Atmega1281_8Mhz_Gcc.a(appTimer.o)
 .bss           0x00800da6        0x6 ../BitCloud_ZIGBIT_1_7_0/BitCloud/Components/../lib\libHAL_ZigBit_Atmega1281_8Mhz_Gcc.a(halTaskManager.o)
                0x00800dab                halTaskFlags5
                0x00800da6                halTaskFlags0
                0x00800da9                halTaskFlags3
                0x00800da7                halTaskFlags1
                0x00800da8                halTaskFlags2
                0x00800daa                halTaskFlags4
 .bss           0x00800dac       0x16 ../BitCloud_ZIGBIT_1_7_0/BitCloud/Components/../lib\libHAL_ZigBit_Atmega1281_8Mhz_Gcc.a(usart.o)
                0x00800db0                halEnableDtrWakeUp
                0x00800db1                dtrWakeUpCallback
                0x00800dac                halPointDescrip
 .bss           0x00800dc2        0xa ../BitCloud_ZIGBIT_1_7_0/BitCloud/Components/../lib\libHAL_ZigBit_Atmega1281_8Mhz_Gcc.a(w1.o)
 .bss           0x00800dcc        0x1 ../BitCloud_ZIGBIT_1_7_0/BitCloud/Components/../lib\libHAL_ZigBit_Atmega1281_8Mhz_Gcc.a(i2cPacket.o)
                0x00800dcc                halI2cPacketState
 .bss           0x00800dcd        0x1 ../BitCloud_ZIGBIT_1_7_0/BitCloud/Components/../lib\libHAL_ZigBit_Atmega1281_8Mhz_Gcc.a(eeprom.o)
                0x00800dcd                halEepromState
 .bss           0x00800dce        0x2 ../BitCloud_ZIGBIT_1_7_0/BitCloud/Components/../lib\libHAL_ZigBit_Atmega1281_8Mhz_Gcc.a(sleepTimer.o)
                0x00800dce                halSleepTimerPointer
 .bss           0x00800dd0        0x1 ../BitCloud_ZIGBIT_1_7_0/BitCloud/Components/../lib\libHAL_ZigBit_Atmega1281_8Mhz_Gcc.a(adc.o)
                0x00800dd0                halAdcState
 .bss           0x00800dd1        0x6 ../BitCloud_ZIGBIT_1_7_0/BitCloud/Components/../lib\libHAL_ZigBit_Atmega1281_8Mhz_Gcc.a(halAppClock.o)
                0x00800dd1                halAppTimeOvfw
 .bss           0x00800dd7        0x1 ../BitCloud_ZIGBIT_1_7_0/BitCloud/Components/../lib\libHAL_ZigBit_Atmega1281_8Mhz_Gcc.a(halClkCtrl.o)
 .bss           0x00800dd8        0x4 ../BitCloud_ZIGBIT_1_7_0/BitCloud/Components/../lib\libHAL_ZigBit_Atmega1281_8Mhz_Gcc.a(halIrq.o)
                0x00800dd8                IrqCallbackList
 .bss           0x00800ddc        0x9 ../BitCloud_ZIGBIT_1_7_0/BitCloud/Components/../lib\libHAL_ZigBit_Atmega1281_8Mhz_Gcc.a(halSleepTimerClock.o)
                0x00800ddc                halSleepTimerOvfw
 .bss           0x00800de5        0x7 ../BitCloud_ZIGBIT_1_7_0/BitCloud/Components/../lib\libHAL_ZigBit_Atmega1281_8Mhz_Gcc.a(halAdc.o)
 *(COMMON)
 COMMON         0x00800dec      0x261 ../BitCloud_ZIGBIT_1_7_0/BitCloud/Components/../lib\libBc_All_ZigBit_Atmega1281_Rf230_8Mhz_Gcc.a(nwkMem.o)
                0x00800dec                nwkMem
 COMMON         0x0080104d       0x40 ../BitCloud_ZIGBIT_1_7_0/BitCloud/Components/../lib\libBc_All_ZigBit_Atmega1281_Rf230_8Mhz_Gcc.a(zib.o)
                0x0080104d                zdoZIB
 COMMON         0x0080108d       0x21 ../BitCloud_ZIGBIT_1_7_0/BitCloud/Components/../lib\libBc_All_ZigBit_Atmega1281_Rf230_8Mhz_Gcc.a(apsAibManager.o)
                0x0080108d                apsAIB
 COMMON         0x008010ae        0x1 ../BitCloud_ZIGBIT_1_7_0/BitCloud/Components/../lib\libBc_All_ZigBit_Atmega1281_Rf230_8Mhz_Gcc.a(machwdTrxCtrl.o)
                0x008010ae                __sourceHandler
 COMMON         0x008010af        0x2 ../BitCloud_ZIGBIT_1_7_0/BitCloud/Components/../lib\libBc_All_ZigBit_Atmega1281_Rf230_8Mhz_Gcc.a(machwdTxFrameHandler.o)
                0x008010af                __dataStatus
                0x008010b0                machwdFrameRetries
 COMMON         0x008010b1        0x4 ../BitCloud_ZIGBIT_1_7_0/BitCloud/Components/../lib\libBc_All_ZigBit_Atmega1281_Rf230_8Mhz_Gcc.a(phyRxFrame.o)
                0x008010b1                __currentPositionPtr
                0x008010b3                __rssi
                0x008010b4                __rxByteCounter
 COMMON         0x008010b5        0x1 ../BitCloud_ZIGBIT_1_7_0/BitCloud/Components/../lib\libBc_All_ZigBit_Atmega1281_Rf230_8Mhz_Gcc.a(phyTxFrame.o)
                0x008010b5                __phyTrxCmd
 COMMON         0x008010b6      0x3be ../BitCloud_ZIGBIT_1_7_0/BitCloud/Components/../lib\libBc_All_ZigBit_Atmega1281_Rf230_8Mhz_Gcc.a(zdoMem.o)
                0x008010b6                zdoMem
 COMMON         0x00801474      0x138 ../BitCloud_ZIGBIT_1_7_0/BitCloud/Components/../lib\libBc_All_ZigBit_Atmega1281_Rf230_8Mhz_Gcc.a(macMem.o)
                0x00801474                macMem
 COMMON         0x008015ac        0x1 ../BitCloud_ZIGBIT_1_7_0/BitCloud/Components/../lib\libBc_All_ZigBit_Atmega1281_Rf230_8Mhz_Gcc.a(machwdEdHandler.o)
                0x008015ac                __energyLevel
 COMMON         0x008015ad       0x21 ../BitCloud_ZIGBIT_1_7_0/BitCloud/Components/../lib\libBc_All_ZigBit_Atmega1281_Rf230_8Mhz_Gcc.a(machwdFrameRoutine.o)
                0x008015ad                txBuffer
 COMMON         0x008015ce       0x16 ../BitCloud_ZIGBIT_1_7_0/BitCloud/Components/./PersistDataServer/lib\libPersistDataServer.a(pdsWriteData.o)
                0x008015ce                pdsEepromSaveServiceTimer
                0x008015db                pdsCurrentState
                0x008015de                pdsStackEepromParams
 COMMON         0x008015e4        0xc ../BitCloud_ZIGBIT_1_7_0/BitCloud/Components/./BSP/lib\libBSPMeshBean.a(bspTII.o)
                0x008015e4                TII_CHNRCallback
                0x008015e6                TII_SMCallback
                0x008015e8                TII_IDCallback
                0x008015ea                TII_stCallback
                0x008015ec                TII_CMCallback
                0x008015ee                DataReadyCb
 COMMON         0x008015f0        0x5 ../BitCloud_ZIGBIT_1_7_0/BitCloud/Components/../lib\libHAL_ZigBit_Atmega1281_8Mhz_Gcc.a(halMacIsr.o)
                0x008015f0                __rtimer
 COMMON         0x008015f5        0xb ../BitCloud_ZIGBIT_1_7_0/BitCloud/Components/../lib\libHAL_ZigBit_Atmega1281_8Mhz_Gcc.a(i2cPacket.o)
                0x008015f5                halI2cPacketControl
 COMMON         0x00801600        0x8 ../BitCloud_ZIGBIT_1_7_0/BitCloud/Components/../lib\libHAL_ZigBit_Atmega1281_8Mhz_Gcc.a(eeprom.o)
                0x00801600                halEepromParams
                0x00801606                halEepromDone
 COMMON         0x00801608        0x2 ../BitCloud_ZIGBIT_1_7_0/BitCloud/Components/../lib\libHAL_ZigBit_Atmega1281_8Mhz_Gcc.a(adc.o)
                0x00801608                halAdcControl
                0x0080160a                PROVIDE (__bss_end, .)

.noinit         0x0080160a        0x1 load address 0x000193da
 *(.noinit*)
 .noinit        0x0080160a        0x1 ../BitCloud_ZIGBIT_1_7_0/BitCloud/Components/../lib/WdtInitatmega1281Gcc.o
                0x0080160a                halResetReason
                0x0080160b                PROVIDE (__heap_start, .)
                0x00017fd0                __data_load_start = LOADADDR (.data)
                0x000180c2                __data_load_end = (__data_load_start + SIZEOF (.data))

.eeprom         0x00810000     0x1000
 FILL mask 0xff
                0x00810000        0x1 BYTE 0xff
                0x00811000                . = ((. + 0x1000) - 0x1)
 *fill*         0x00810001      0xfff ff

/DISCARD/
 *(.init9)
 *(.fini*)
LOAD ./objs/messages.o
LOAD ./objs/ncap_wilma.o
LOAD ./objs/nwkConfig.o
LOAD ./objs/uart_buffer.o
LOAD ../BitCloud_ZIGBIT_1_7_0/BitCloud/Components/../lib/WdtInitatmega1281Gcc.o
LOAD ../BitCloud_ZIGBIT_1_7_0/BitCloud/Components/../lib\libBc_All_ZigBit_Atmega1281_Rf230_8Mhz_Gcc.a
LOAD ../BitCloud_ZIGBIT_1_7_0/BitCloud/Components/./ConfigServer/lib\libConfigServer.a
LOAD ../BitCloud_ZIGBIT_1_7_0/BitCloud/Components/./PersistDataServer/lib\libPersistDataServer.a
LOAD ../BitCloud_ZIGBIT_1_7_0/BitCloud/Components/./BSP/lib\libBSPMeshBean.a
LOAD ../BitCloud_ZIGBIT_1_7_0/BitCloud/Components/../lib\libHAL_ZigBit_Atmega1281_8Mhz_Gcc.a
LOAD ../BitCloud_ZIGBIT_1_7_0/BitCloud/Components/../lib\libBc_All_ZigBit_Atmega1281_Rf230_8Mhz_Gcc.a
LOAD c:/winavr-20090313/bin/../lib/gcc/avr/4.3.2/avr51\libgcc.a
LOAD c:/winavr-20090313/bin/../lib/gcc/avr/4.3.2/../../../../avr/lib/avr51\libc.a
LOAD c:/winavr-20090313/bin/../lib/gcc/avr/4.3.2/avr51\libgcc.a
OUTPUT(ncap_wilma.elf elf32-avr)
LOAD linker stubs

.debug_abbrev   0x00000000     0x1177
 .debug_abbrev  0x00000000      0x231 ./objs/messages.o
 .debug_abbrev  0x00000231      0x283 ./objs/ncap_wilma.o
 .debug_abbrev  0x000004b4       0x9a ./objs/nwkConfig.o
 .debug_abbrev  0x0000054e      0x1ce ./objs/uart_buffer.o
 .debug_abbrev  0x0000071c      0x1fd ../BitCloud_ZIGBIT_1_7_0/BitCloud/Components/./ConfigServer/lib\libConfigServer.a(configServer.o)
 .debug_abbrev  0x00000919      0x18a ../BitCloud_ZIGBIT_1_7_0/BitCloud/Components/./PersistDataServer/lib\libPersistDataServer.a(pdsDataServer.o)
 .debug_abbrev  0x00000aa3      0x1f7 ../BitCloud_ZIGBIT_1_7_0/BitCloud/Components/./PersistDataServer/lib\libPersistDataServer.a(pdsWriteData.o)
 .debug_abbrev  0x00000c9a      0x10e ../BitCloud_ZIGBIT_1_7_0/BitCloud/Components/./PersistDataServer/lib\libPersistDataServer.a(pdsCrcService.o)
 .debug_abbrev  0x00000da8      0x2af ../BitCloud_ZIGBIT_1_7_0/BitCloud/Components/./BSP/lib\libBSPMeshBean.a(bspTII.o)
 .debug_abbrev  0x00001057      0x120 ../BitCloud_ZIGBIT_1_7_0/BitCloud/Components/./BSP/lib\libBSPMeshBean.a(bspTaskManager.o)

.debug_info     0x00000000     0x6787
 .debug_info    0x00000000      0x9b0 ./objs/messages.o
 .debug_info    0x000009b0      0xb27 ./objs/ncap_wilma.o
 .debug_info    0x000014d7      0x2a0 ./objs/nwkConfig.o
 .debug_info    0x00001777      0x6a2 ./objs/uart_buffer.o
 .debug_info    0x00001e19     0x2489 ../BitCloud_ZIGBIT_1_7_0/BitCloud/Components/./ConfigServer/lib\libConfigServer.a(configServer.o)
 .debug_info    0x000042a2      0x72d ../BitCloud_ZIGBIT_1_7_0/BitCloud/Components/./PersistDataServer/lib\libPersistDataServer.a(pdsDataServer.o)
 .debug_info    0x000049cf      0x7c3 ../BitCloud_ZIGBIT_1_7_0/BitCloud/Components/./PersistDataServer/lib\libPersistDataServer.a(pdsWriteData.o)
 .debug_info    0x00005192      0x29c ../BitCloud_ZIGBIT_1_7_0/BitCloud/Components/./PersistDataServer/lib\libPersistDataServer.a(pdsCrcService.o)
 .debug_info    0x0000542e     0x1155 ../BitCloud_ZIGBIT_1_7_0/BitCloud/Components/./BSP/lib\libBSPMeshBean.a(bspTII.o)
 .debug_info    0x00006583      0x204 ../BitCloud_ZIGBIT_1_7_0/BitCloud/Components/./BSP/lib\libBSPMeshBean.a(bspTaskManager.o)

.debug_line     0x00000000     0x2f60
 .debug_line    0x00000000      0x485 ./objs/messages.o
 .debug_line    0x00000485      0x5c3 ./objs/ncap_wilma.o
 .debug_line    0x00000a48      0x1c6 ./objs/nwkConfig.o
 .debug_line    0x00000c0e      0x46f ./objs/uart_buffer.o
 .debug_line    0x0000107d      0x741 ../BitCloud_ZIGBIT_1_7_0/BitCloud/Components/./ConfigServer/lib\libConfigServer.a(configServer.o)
 .debug_line    0x000017be      0x4ce ../BitCloud_ZIGBIT_1_7_0/BitCloud/Components/./PersistDataServer/lib\libPersistDataServer.a(pdsDataServer.o)
 .debug_line    0x00001c8c      0x442 ../BitCloud_ZIGBIT_1_7_0/BitCloud/Components/./PersistDataServer/lib\libPersistDataServer.a(pdsWriteData.o)
 .debug_line    0x000020ce      0x34c ../BitCloud_ZIGBIT_1_7_0/BitCloud/Components/./PersistDataServer/lib\libPersistDataServer.a(pdsCrcService.o)
 .debug_line    0x0000241a      0x9c4 ../BitCloud_ZIGBIT_1_7_0/BitCloud/Components/./BSP/lib\libBSPMeshBean.a(bspTII.o)
 .debug_line    0x00002dde      0x182 ../BitCloud_ZIGBIT_1_7_0/BitCloud/Components/./BSP/lib\libBSPMeshBean.a(bspTaskManager.o)

.debug_frame    0x00000000      0x4e0
 .debug_frame   0x00000000       0x80 ./objs/messages.o
 .debug_frame   0x00000080       0xd0 ./objs/ncap_wilma.o
 .debug_frame   0x00000150       0x20 ./objs/nwkConfig.o
 .debug_frame   0x00000170       0xd0 ./objs/uart_buffer.o
 .debug_frame   0x00000240       0x60 ../BitCloud_ZIGBIT_1_7_0/BitCloud/Components/./ConfigServer/lib\libConfigServer.a(configServer.o)
 .debug_frame   0x000002a0       0x80 ../BitCloud_ZIGBIT_1_7_0/BitCloud/Components/./PersistDataServer/lib\libPersistDataServer.a(pdsDataServer.o)
 .debug_frame   0x00000320       0x80 ../BitCloud_ZIGBIT_1_7_0/BitCloud/Components/./PersistDataServer/lib\libPersistDataServer.a(pdsWriteData.o)
 .debug_frame   0x000003a0       0x50 ../BitCloud_ZIGBIT_1_7_0/BitCloud/Components/./PersistDataServer/lib\libPersistDataServer.a(pdsCrcService.o)
 .debug_frame   0x000003f0       0xd0 ../BitCloud_ZIGBIT_1_7_0/BitCloud/Components/./BSP/lib\libBSPMeshBean.a(bspTII.o)
 .debug_frame   0x000004c0       0x20 ../BitCloud_ZIGBIT_1_7_0/BitCloud/Components/./BSP/lib\libBSPMeshBean.a(bspTaskManager.o)

.debug_loc      0x00000000      0xc80
 .debug_loc     0x00000000      0x13c ./objs/messages.o
 .debug_loc     0x0000013c      0x123 ./objs/ncap_wilma.o
 .debug_loc     0x0000025f       0x90 ./objs/uart_buffer.o
 .debug_loc     0x000002ef      0x53c ../BitCloud_ZIGBIT_1_7_0/BitCloud/Components/./ConfigServer/lib\libConfigServer.a(configServer.o)
 .debug_loc     0x0000082b      0x140 ../BitCloud_ZIGBIT_1_7_0/BitCloud/Components/./PersistDataServer/lib\libPersistDataServer.a(pdsDataServer.o)
 .debug_loc     0x0000096b       0x9b ../BitCloud_ZIGBIT_1_7_0/BitCloud/Components/./PersistDataServer/lib\libPersistDataServer.a(pdsWriteData.o)
 .debug_loc     0x00000a06       0x60 ../BitCloud_ZIGBIT_1_7_0/BitCloud/Components/./PersistDataServer/lib\libPersistDataServer.a(pdsCrcService.o)
 .debug_loc     0x00000a66      0x21a ../BitCloud_ZIGBIT_1_7_0/BitCloud/Components/./BSP/lib\libBSPMeshBean.a(bspTII.o)

.debug_pubnames
                0x00000000      0x6cb
 .debug_pubnames
                0x00000000       0x93 ./objs/messages.o
 .debug_pubnames
                0x00000093       0xf3 ./objs/ncap_wilma.o
 .debug_pubnames
                0x00000186       0x49 ./objs/nwkConfig.o
 .debug_pubnames
                0x000001cf       0xe8 ./objs/uart_buffer.o
 .debug_pubnames
                0x000002b7       0x81 ../BitCloud_ZIGBIT_1_7_0/BitCloud/Components/./ConfigServer/lib\libConfigServer.a(configServer.o)
 .debug_pubnames
                0x00000338       0x9a ../BitCloud_ZIGBIT_1_7_0/BitCloud/Components/./PersistDataServer/lib\libPersistDataServer.a(pdsDataServer.o)
 .debug_pubnames
                0x000003d2      0x137 ../BitCloud_ZIGBIT_1_7_0/BitCloud/Components/./PersistDataServer/lib\libPersistDataServer.a(pdsWriteData.o)
 .debug_pubnames
                0x00000509       0x57 ../BitCloud_ZIGBIT_1_7_0/BitCloud/Components/./PersistDataServer/lib\libPersistDataServer.a(pdsCrcService.o)
 .debug_pubnames
                0x00000560      0x133 ../BitCloud_ZIGBIT_1_7_0/BitCloud/Components/./BSP/lib\libBSPMeshBean.a(bspTII.o)
 .debug_pubnames
                0x00000693       0x38 ../BitCloud_ZIGBIT_1_7_0/BitCloud/Components/./BSP/lib\libBSPMeshBean.a(bspTaskManager.o)

.debug_aranges  0x00000000      0x310
 .debug_aranges
                0x00000000       0x50 ./objs/messages.o
 .debug_aranges
                0x00000050       0x78 ./objs/ncap_wilma.o
 .debug_aranges
                0x000000c8       0x20 ./objs/nwkConfig.o
 .debug_aranges
                0x000000e8       0x78 ./objs/uart_buffer.o
 .debug_aranges
                0x00000160       0x40 ../BitCloud_ZIGBIT_1_7_0/BitCloud/Components/./ConfigServer/lib\libConfigServer.a(configServer.o)
 .debug_aranges
                0x000001a0       0x50 ../BitCloud_ZIGBIT_1_7_0/BitCloud/Components/./PersistDataServer/lib\libPersistDataServer.a(pdsDataServer.o)
 .debug_aranges
                0x000001f0       0x50 ../BitCloud_ZIGBIT_1_7_0/BitCloud/Components/./PersistDataServer/lib\libPersistDataServer.a(pdsWriteData.o)
 .debug_aranges
                0x00000240       0x38 ../BitCloud_ZIGBIT_1_7_0/BitCloud/Components/./PersistDataServer/lib\libPersistDataServer.a(pdsCrcService.o)
 .debug_aranges
                0x00000278       0x78 ../BitCloud_ZIGBIT_1_7_0/BitCloud/Components/./BSP/lib\libBSPMeshBean.a(bspTII.o)
 .debug_aranges
                0x000002f0       0x20 ../BitCloud_ZIGBIT_1_7_0/BitCloud/Components/./BSP/lib\libBSPMeshBean.a(bspTaskManager.o)

.debug_ranges   0x00000000      0x2c0
 .debug_ranges  0x00000000       0x48 ./objs/messages.o
 .debug_ranges  0x00000048       0x70 ./objs/ncap_wilma.o
 .debug_ranges  0x000000b8       0x18 ./objs/nwkConfig.o
 .debug_ranges  0x000000d0       0x70 ./objs/uart_buffer.o
 .debug_ranges  0x00000140       0x38 ../BitCloud_ZIGBIT_1_7_0/BitCloud/Components/./ConfigServer/lib\libConfigServer.a(configServer.o)
 .debug_ranges  0x00000178       0x48 ../BitCloud_ZIGBIT_1_7_0/BitCloud/Components/./PersistDataServer/lib\libPersistDataServer.a(pdsDataServer.o)
 .debug_ranges  0x000001c0       0x48 ../BitCloud_ZIGBIT_1_7_0/BitCloud/Components/./PersistDataServer/lib\libPersistDataServer.a(pdsWriteData.o)
 .debug_ranges  0x00000208       0x30 ../BitCloud_ZIGBIT_1_7_0/BitCloud/Components/./PersistDataServer/lib\libPersistDataServer.a(pdsCrcService.o)
 .debug_ranges  0x00000238       0x70 ../BitCloud_ZIGBIT_1_7_0/BitCloud/Components/./BSP/lib\libBSPMeshBean.a(bspTII.o)
 .debug_ranges  0x000002a8       0x18 ../BitCloud_ZIGBIT_1_7_0/BitCloud/Components/./BSP/lib\libBSPMeshBean.a(bspTaskManager.o)

.debug_str      0x00000000     0x4240
 .debug_str     0x00000000      0x802 ./objs/messages.o
                                0x84f (size before relaxing)
 .debug_str     0x00000802      0x6ba ./objs/ncap_wilma.o
                                0xc85 (size before relaxing)
 .debug_str     0x00000ebc      0x66e ./objs/nwkConfig.o
                                0x72a (size before relaxing)
 .debug_str     0x0000152a      0x4e9 ./objs/uart_buffer.o
                                0x615 (size before relaxing)
 .debug_str     0x00001a13     0x1f7f ../BitCloud_ZIGBIT_1_7_0/BitCloud/Components/./ConfigServer/lib\libConfigServer.a(configServer.o)
                               0x2d5c (size before relaxing)
 .debug_str     0x00003992      0x28a ../BitCloud_ZIGBIT_1_7_0/BitCloud/Components/./PersistDataServer/lib\libPersistDataServer.a(pdsDataServer.o)
                                0xbc3 (size before relaxing)
 .debug_str     0x00003c1c       0xde ../BitCloud_ZIGBIT_1_7_0/BitCloud/Components/./PersistDataServer/lib\libPersistDataServer.a(pdsWriteData.o)
                                0xbb8 (size before relaxing)
 .debug_str     0x00003cfa       0x82 ../BitCloud_ZIGBIT_1_7_0/BitCloud/Components/./PersistDataServer/lib\libPersistDataServer.a(pdsCrcService.o)
                                0x289 (size before relaxing)
 .debug_str     0x00003d7c      0x496 ../BitCloud_ZIGBIT_1_7_0/BitCloud/Components/./BSP/lib\libBSPMeshBean.a(bspTII.o)
                                0xa69 (size before relaxing)
 .debug_str     0x00004212       0x2e ../BitCloud_ZIGBIT_1_7_0/BitCloud/Components/./BSP/lib\libBSPMeshBean.a(bspTaskManager.o)
                                0x204 (size before relaxing)
